
uart_rx:     file format elf32-littleriscv


Disassembly of section .init:

90000000 <_start>:
90000000:	f0001197          	auipc	gp,0xf0001
90000004:	fb818193          	addi	gp,gp,-72 # 80000fb8 <__global_pointer$>
90000008:	f0008117          	auipc	sp,0xf0008
9000000c:	ff810113          	addi	sp,sp,-8 # 80008000 <__freertos_irq_stack_top>
90000010:	00005517          	auipc	a0,0x5
90000014:	35850513          	addi	a0,a0,856 # 90005368 <_data_lma>
90000018:	f0000597          	auipc	a1,0xf0000
9000001c:	fe858593          	addi	a1,a1,-24 # 80000000 <_data>
90000020:	80818613          	addi	a2,gp,-2040 # 800007c0 <__bss_start>
90000024:	00c5fc63          	bgeu	a1,a2,9000003c <_start+0x3c>
90000028:	00052283          	lw	t0,0(a0)
9000002c:	0055a023          	sw	t0,0(a1)
90000030:	00450513          	addi	a0,a0,4
90000034:	00458593          	addi	a1,a1,4
90000038:	fec5e8e3          	bltu	a1,a2,90000028 <_start+0x28>
9000003c:	80818513          	addi	a0,gp,-2040 # 800007c0 <__bss_start>
90000040:	81018593          	addi	a1,gp,-2032 # 800007c8 <_end>
90000044:	00b57863          	bgeu	a0,a1,90000054 <_start+0x54>
90000048:	00052023          	sw	zero,0(a0)
9000004c:	00450513          	addi	a0,a0,4
90000050:	feb56ce3          	bltu	a0,a1,90000048 <_start+0x48>
90000054:	164000ef          	jal	ra,900001b8 <_init>
90000058:	130000ef          	jal	ra,90000188 <main>

9000005c <loop>:
9000005c:	0000006f          	j	9000005c <loop>

Disassembly of section .text:

90000060 <trap_entry>:
90000060:	f8010113          	addi	sp,sp,-128
90000064:	00112223          	sw	ra,4(sp)
90000068:	00212423          	sw	sp,8(sp)
9000006c:	00312623          	sw	gp,12(sp)
90000070:	00412823          	sw	tp,16(sp)
90000074:	00512a23          	sw	t0,20(sp)
90000078:	00612c23          	sw	t1,24(sp)
9000007c:	00712e23          	sw	t2,28(sp)
90000080:	02812023          	sw	s0,32(sp)
90000084:	02912223          	sw	s1,36(sp)
90000088:	02a12423          	sw	a0,40(sp)
9000008c:	02b12623          	sw	a1,44(sp)
90000090:	02c12823          	sw	a2,48(sp)
90000094:	02d12a23          	sw	a3,52(sp)
90000098:	02e12c23          	sw	a4,56(sp)
9000009c:	02f12e23          	sw	a5,60(sp)
900000a0:	05012023          	sw	a6,64(sp)
900000a4:	05112223          	sw	a7,68(sp)
900000a8:	05212423          	sw	s2,72(sp)
900000ac:	05312623          	sw	s3,76(sp)
900000b0:	05412823          	sw	s4,80(sp)
900000b4:	05512a23          	sw	s5,84(sp)
900000b8:	05612c23          	sw	s6,88(sp)
900000bc:	05712e23          	sw	s7,92(sp)
900000c0:	07812023          	sw	s8,96(sp)
900000c4:	07912223          	sw	s9,100(sp)
900000c8:	07a12423          	sw	s10,104(sp)
900000cc:	07b12623          	sw	s11,108(sp)
900000d0:	07c12823          	sw	t3,112(sp)
900000d4:	07d12a23          	sw	t4,116(sp)
900000d8:	07e12c23          	sw	t5,120(sp)
900000dc:	07f12e23          	sw	t6,124(sp)
900000e0:	34202573          	csrr	a0,mcause
900000e4:	341025f3          	csrr	a1,mepc

900000e8 <test_if_asynchronous>:
900000e8:	01f55613          	srli	a2,a0,0x1f
900000ec:	00060663          	beqz	a2,900000f8 <handle_synchronous>
900000f0:	108000ef          	jal	ra,900001f8 <trap_handler>
900000f4:	00c0006f          	j	90000100 <asynchronous_return>

900000f8 <handle_synchronous>:
900000f8:	00458593          	addi	a1,a1,4
900000fc:	34159073          	csrw	mepc,a1

90000100 <asynchronous_return>:
90000100:	00412083          	lw	ra,4(sp)
90000104:	00812103          	lw	sp,8(sp)
90000108:	00c12183          	lw	gp,12(sp)
9000010c:	01012203          	lw	tp,16(sp)
90000110:	01412283          	lw	t0,20(sp)
90000114:	01812303          	lw	t1,24(sp)
90000118:	01c12383          	lw	t2,28(sp)
9000011c:	02012403          	lw	s0,32(sp)
90000120:	02412483          	lw	s1,36(sp)
90000124:	02812503          	lw	a0,40(sp)
90000128:	02c12583          	lw	a1,44(sp)
9000012c:	03012603          	lw	a2,48(sp)
90000130:	03412683          	lw	a3,52(sp)
90000134:	03812703          	lw	a4,56(sp)
90000138:	03c12783          	lw	a5,60(sp)
9000013c:	04012803          	lw	a6,64(sp)
90000140:	04412883          	lw	a7,68(sp)
90000144:	04812903          	lw	s2,72(sp)
90000148:	04c12983          	lw	s3,76(sp)
9000014c:	05012a03          	lw	s4,80(sp)
90000150:	05412a83          	lw	s5,84(sp)
90000154:	05812b03          	lw	s6,88(sp)
90000158:	05c12b83          	lw	s7,92(sp)
9000015c:	06012c03          	lw	s8,96(sp)
90000160:	06412c83          	lw	s9,100(sp)
90000164:	06812d03          	lw	s10,104(sp)
90000168:	06c12d83          	lw	s11,108(sp)
9000016c:	07012e03          	lw	t3,112(sp)
90000170:	07412e83          	lw	t4,116(sp)
90000174:	07812f03          	lw	t5,120(sp)
90000178:	07c12f83          	lw	t6,124(sp)
9000017c:	08010113          	addi	sp,sp,128
90000180:	30200073          	mret
90000184:	0000006f          	j	90000184 <asynchronous_return+0x84>

90000188 <main>:
90000188:	ff010113          	addi	sp,sp,-16
9000018c:	00112623          	sw	ra,12(sp)
90000190:	00812423          	sw	s0,8(sp)
90000194:	01010413          	addi	s0,sp,16
90000198:	281000ef          	jal	ra,90000c18 <uart_init>
9000019c:	21d000ef          	jal	ra,90000bb8 <uart_getc>
900001a0:	00050793          	mv	a5,a0
900001a4:	00078593          	mv	a1,a5
900001a8:	800007b7          	lui	a5,0x80000
900001ac:	00078513          	mv	a0,a5
900001b0:	15d000ef          	jal	ra,90000b0c <xprintf>
900001b4:	fe9ff06f          	j	9000019c <main+0x14>

900001b8 <_init>:
900001b8:	ff010113          	addi	sp,sp,-16
900001bc:	00812623          	sw	s0,12(sp)
900001c0:	01010413          	addi	s0,sp,16
900001c4:	900007b7          	lui	a5,0x90000
900001c8:	06078793          	addi	a5,a5,96 # 90000060 <_data_lma+0xffffacf8>
900001cc:	30579073          	csrw	mtvec,a5
900001d0:	000027b7          	lui	a5,0x2
900001d4:	88878793          	addi	a5,a5,-1912 # 1888 <__stack_size-0x778>
900001d8:	30079073          	csrw	mstatus,a5
900001dc:	888897b7          	lui	a5,0x88889
900001e0:	88878793          	addi	a5,a5,-1912 # 88888888 <_data_lma+0xf8883520>
900001e4:	30479073          	csrw	mie,a5
900001e8:	00000013          	nop
900001ec:	00c12403          	lw	s0,12(sp)
900001f0:	01010113          	addi	sp,sp,16
900001f4:	00008067          	ret

900001f8 <trap_handler>:
900001f8:	fe010113          	addi	sp,sp,-32
900001fc:	00812e23          	sw	s0,28(sp)
90000200:	02010413          	addi	s0,sp,32
90000204:	fea42623          	sw	a0,-20(s0)
90000208:	feb42423          	sw	a1,-24(s0)
9000020c:	00000013          	nop
90000210:	01c12403          	lw	s0,28(sp)
90000214:	02010113          	addi	sp,sp,32
90000218:	00008067          	ret

9000021c <reverse>:
9000021c:	fd010113          	addi	sp,sp,-48
90000220:	02812623          	sw	s0,44(sp)
90000224:	03010413          	addi	s0,sp,48
90000228:	fca42e23          	sw	a0,-36(s0)
9000022c:	fcb42c23          	sw	a1,-40(s0)
90000230:	fe042623          	sw	zero,-20(s0)
90000234:	fd842783          	lw	a5,-40(s0)
90000238:	fff78793          	addi	a5,a5,-1
9000023c:	fef42423          	sw	a5,-24(s0)
90000240:	0640006f          	j	900002a4 <reverse+0x88>
90000244:	fec42783          	lw	a5,-20(s0)
90000248:	fdc42703          	lw	a4,-36(s0)
9000024c:	00f707b3          	add	a5,a4,a5
90000250:	0007c783          	lbu	a5,0(a5)
90000254:	fef403a3          	sb	a5,-25(s0)
90000258:	fe842783          	lw	a5,-24(s0)
9000025c:	fdc42703          	lw	a4,-36(s0)
90000260:	00f70733          	add	a4,a4,a5
90000264:	fec42783          	lw	a5,-20(s0)
90000268:	fdc42683          	lw	a3,-36(s0)
9000026c:	00f687b3          	add	a5,a3,a5
90000270:	00074703          	lbu	a4,0(a4)
90000274:	00e78023          	sb	a4,0(a5)
90000278:	fe842783          	lw	a5,-24(s0)
9000027c:	fdc42703          	lw	a4,-36(s0)
90000280:	00f707b3          	add	a5,a4,a5
90000284:	fe744703          	lbu	a4,-25(s0)
90000288:	00e78023          	sb	a4,0(a5)
9000028c:	fec42783          	lw	a5,-20(s0)
90000290:	00178793          	addi	a5,a5,1
90000294:	fef42623          	sw	a5,-20(s0)
90000298:	fe842783          	lw	a5,-24(s0)
9000029c:	fff78793          	addi	a5,a5,-1
900002a0:	fef42423          	sw	a5,-24(s0)
900002a4:	fec42703          	lw	a4,-20(s0)
900002a8:	fe842783          	lw	a5,-24(s0)
900002ac:	f8f74ce3          	blt	a4,a5,90000244 <reverse+0x28>
900002b0:	00000013          	nop
900002b4:	02c12403          	lw	s0,44(sp)
900002b8:	03010113          	addi	sp,sp,48
900002bc:	00008067          	ret

900002c0 <ltoa>:
900002c0:	fd010113          	addi	sp,sp,-48
900002c4:	02112623          	sw	ra,44(sp)
900002c8:	02812423          	sw	s0,40(sp)
900002cc:	03010413          	addi	s0,sp,48
900002d0:	fca42e23          	sw	a0,-36(s0)
900002d4:	fcb42c23          	sw	a1,-40(s0)
900002d8:	fcc42a23          	sw	a2,-44(s0)
900002dc:	fe042623          	sw	zero,-20(s0)
900002e0:	fe042423          	sw	zero,-24(s0)
900002e4:	fdc42783          	lw	a5,-36(s0)
900002e8:	02079c63          	bnez	a5,90000320 <ltoa+0x60>
900002ec:	fec42783          	lw	a5,-20(s0)
900002f0:	00178713          	addi	a4,a5,1
900002f4:	fee42623          	sw	a4,-20(s0)
900002f8:	fd842703          	lw	a4,-40(s0)
900002fc:	00f707b3          	add	a5,a4,a5
90000300:	03000713          	li	a4,48
90000304:	00e78023          	sb	a4,0(a5)
90000308:	fd842703          	lw	a4,-40(s0)
9000030c:	fec42783          	lw	a5,-20(s0)
90000310:	00f707b3          	add	a5,a4,a5
90000314:	00078023          	sb	zero,0(a5)
90000318:	fd842783          	lw	a5,-40(s0)
9000031c:	0e80006f          	j	90000404 <ltoa+0x144>
90000320:	fdc42783          	lw	a5,-36(s0)
90000324:	0807d863          	bgez	a5,900003b4 <ltoa+0xf4>
90000328:	fd442703          	lw	a4,-44(s0)
9000032c:	00a00793          	li	a5,10
90000330:	08f71263          	bne	a4,a5,900003b4 <ltoa+0xf4>
90000334:	00100793          	li	a5,1
90000338:	fef42423          	sw	a5,-24(s0)
9000033c:	fdc42783          	lw	a5,-36(s0)
90000340:	40f007b3          	neg	a5,a5
90000344:	fcf42e23          	sw	a5,-36(s0)
90000348:	06c0006f          	j	900003b4 <ltoa+0xf4>
9000034c:	fdc42703          	lw	a4,-36(s0)
90000350:	fd442783          	lw	a5,-44(s0)
90000354:	02f767b3          	rem	a5,a4,a5
90000358:	fef42223          	sw	a5,-28(s0)
9000035c:	fe442703          	lw	a4,-28(s0)
90000360:	00900793          	li	a5,9
90000364:	00e7dc63          	bge	a5,a4,9000037c <ltoa+0xbc>
90000368:	fe442783          	lw	a5,-28(s0)
9000036c:	0ff7f793          	andi	a5,a5,255
90000370:	05778793          	addi	a5,a5,87
90000374:	0ff7f793          	andi	a5,a5,255
90000378:	0140006f          	j	9000038c <ltoa+0xcc>
9000037c:	fe442783          	lw	a5,-28(s0)
90000380:	0ff7f793          	andi	a5,a5,255
90000384:	03078793          	addi	a5,a5,48
90000388:	0ff7f793          	andi	a5,a5,255
9000038c:	fec42703          	lw	a4,-20(s0)
90000390:	00170693          	addi	a3,a4,1
90000394:	fed42623          	sw	a3,-20(s0)
90000398:	fd842683          	lw	a3,-40(s0)
9000039c:	00e68733          	add	a4,a3,a4
900003a0:	00f70023          	sb	a5,0(a4)
900003a4:	fdc42703          	lw	a4,-36(s0)
900003a8:	fd442783          	lw	a5,-44(s0)
900003ac:	02f747b3          	div	a5,a4,a5
900003b0:	fcf42e23          	sw	a5,-36(s0)
900003b4:	fdc42783          	lw	a5,-36(s0)
900003b8:	f8079ae3          	bnez	a5,9000034c <ltoa+0x8c>
900003bc:	fe842783          	lw	a5,-24(s0)
900003c0:	02078063          	beqz	a5,900003e0 <ltoa+0x120>
900003c4:	fec42783          	lw	a5,-20(s0)
900003c8:	00178713          	addi	a4,a5,1
900003cc:	fee42623          	sw	a4,-20(s0)
900003d0:	fd842703          	lw	a4,-40(s0)
900003d4:	00f707b3          	add	a5,a4,a5
900003d8:	02d00713          	li	a4,45
900003dc:	00e78023          	sb	a4,0(a5)
900003e0:	fd842703          	lw	a4,-40(s0)
900003e4:	fec42783          	lw	a5,-20(s0)
900003e8:	00f707b3          	add	a5,a4,a5
900003ec:	00078023          	sb	zero,0(a5)
900003f0:	fec42783          	lw	a5,-20(s0)
900003f4:	00078593          	mv	a1,a5
900003f8:	fd842503          	lw	a0,-40(s0)
900003fc:	e21ff0ef          	jal	ra,9000021c <reverse>
90000400:	fd842783          	lw	a5,-40(s0)
90000404:	00078513          	mv	a0,a5
90000408:	02c12083          	lw	ra,44(sp)
9000040c:	02812403          	lw	s0,40(sp)
90000410:	03010113          	addi	sp,sp,48
90000414:	00008067          	ret

90000418 <floatToStr>:
90000418:	fd010113          	addi	sp,sp,-48
9000041c:	02112623          	sw	ra,44(sp)
90000420:	02812423          	sw	s0,40(sp)
90000424:	03010413          	addi	s0,sp,48
90000428:	fca42e23          	sw	a0,-36(s0)
9000042c:	fcb42c23          	sw	a1,-40(s0)
90000430:	fcc42a23          	sw	a2,-44(s0)
90000434:	fd442503          	lw	a0,-44(s0)
90000438:	640040ef          	jal	ra,90004a78 <__floatsidf>
9000043c:	00050693          	mv	a3,a0
90000440:	00058713          	mv	a4,a1
90000444:	800007b7          	lui	a5,0x80000
90000448:	0647a803          	lw	a6,100(a5) # 80000064 <_data_lma+0xefffacfc>
9000044c:	0607a783          	lw	a5,96(a5)
90000450:	00068613          	mv	a2,a3
90000454:	00070693          	mv	a3,a4
90000458:	00078513          	mv	a0,a5
9000045c:	00080593          	mv	a1,a6
90000460:	7ec000ef          	jal	ra,90000c4c <pow>
90000464:	00050793          	mv	a5,a0
90000468:	00058813          	mv	a6,a1
9000046c:	00078513          	mv	a0,a5
90000470:	00080593          	mv	a1,a6
90000474:	580040ef          	jal	ra,900049f4 <__fixdfsi>
90000478:	00050793          	mv	a5,a0
9000047c:	00078513          	mv	a0,a5
90000480:	2b1040ef          	jal	ra,90004f30 <__floatsisf>
90000484:	00050793          	mv	a5,a0
90000488:	fdc42583          	lw	a1,-36(s0)
9000048c:	00078513          	mv	a0,a5
90000490:	6a8040ef          	jal	ra,90004b38 <__mulsf3>
90000494:	00050793          	mv	a5,a0
90000498:	00078513          	mv	a0,a5
9000049c:	221040ef          	jal	ra,90004ebc <__fixsfsi>
900004a0:	00050793          	mv	a5,a0
900004a4:	fef42423          	sw	a5,-24(s0)
900004a8:	00a00613          	li	a2,10
900004ac:	fd842583          	lw	a1,-40(s0)
900004b0:	fe842503          	lw	a0,-24(s0)
900004b4:	e0dff0ef          	jal	ra,900002c0 <ltoa>
900004b8:	fd842503          	lw	a0,-40(s0)
900004bc:	621040ef          	jal	ra,900052dc <strlen>
900004c0:	00050793          	mv	a5,a0
900004c4:	fef42223          	sw	a5,-28(s0)
900004c8:	fd442783          	lw	a5,-44(s0)
900004cc:	08f05863          	blez	a5,9000055c <floatToStr+0x144>
900004d0:	fe042623          	sw	zero,-20(s0)
900004d4:	0480006f          	j	9000051c <floatToStr+0x104>
900004d8:	fe442703          	lw	a4,-28(s0)
900004dc:	fec42783          	lw	a5,-20(s0)
900004e0:	40f707b3          	sub	a5,a4,a5
900004e4:	fff78793          	addi	a5,a5,-1
900004e8:	fd842703          	lw	a4,-40(s0)
900004ec:	00f70733          	add	a4,a4,a5
900004f0:	fe442683          	lw	a3,-28(s0)
900004f4:	fec42783          	lw	a5,-20(s0)
900004f8:	40f687b3          	sub	a5,a3,a5
900004fc:	00078693          	mv	a3,a5
90000500:	fd842783          	lw	a5,-40(s0)
90000504:	00d787b3          	add	a5,a5,a3
90000508:	00074703          	lbu	a4,0(a4)
9000050c:	00e78023          	sb	a4,0(a5)
90000510:	fec42783          	lw	a5,-20(s0)
90000514:	00178793          	addi	a5,a5,1
90000518:	fef42623          	sw	a5,-20(s0)
9000051c:	fec42703          	lw	a4,-20(s0)
90000520:	fd442783          	lw	a5,-44(s0)
90000524:	faf74ae3          	blt	a4,a5,900004d8 <floatToStr+0xc0>
90000528:	fe442703          	lw	a4,-28(s0)
9000052c:	fd442783          	lw	a5,-44(s0)
90000530:	40f707b3          	sub	a5,a4,a5
90000534:	00078713          	mv	a4,a5
90000538:	fd842783          	lw	a5,-40(s0)
9000053c:	00e787b3          	add	a5,a5,a4
90000540:	02e00713          	li	a4,46
90000544:	00e78023          	sb	a4,0(a5)
90000548:	fe442783          	lw	a5,-28(s0)
9000054c:	00178793          	addi	a5,a5,1
90000550:	fd842703          	lw	a4,-40(s0)
90000554:	00f707b3          	add	a5,a4,a5
90000558:	00078023          	sb	zero,0(a5)
9000055c:	00000013          	nop
90000560:	02c12083          	lw	ra,44(sp)
90000564:	02812403          	lw	s0,40(sp)
90000568:	03010113          	addi	sp,sp,48
9000056c:	00008067          	ret

90000570 <xputc>:
90000570:	fe010113          	addi	sp,sp,-32
90000574:	00112e23          	sw	ra,28(sp)
90000578:	00812c23          	sw	s0,24(sp)
9000057c:	02010413          	addi	s0,sp,32
90000580:	00050793          	mv	a5,a0
90000584:	fef407a3          	sb	a5,-17(s0)
90000588:	800007b7          	lui	a5,0x80000
9000058c:	7c07a783          	lw	a5,1984(a5) # 800007c0 <_data_lma+0xefffb458>
90000590:	02078263          	beqz	a5,900005b4 <xputc+0x44>
90000594:	800007b7          	lui	a5,0x80000
90000598:	7c07a783          	lw	a5,1984(a5) # 800007c0 <_data_lma+0xefffb458>
9000059c:	00178693          	addi	a3,a5,1
900005a0:	80000737          	lui	a4,0x80000
900005a4:	7cd72023          	sw	a3,1984(a4) # 800007c0 <_data_lma+0xefffb458>
900005a8:	fef44703          	lbu	a4,-17(s0)
900005ac:	00e78023          	sb	a4,0(a5)
900005b0:	01c0006f          	j	900005cc <xputc+0x5c>
900005b4:	80c1a783          	lw	a5,-2036(gp) # 800007c4 <xfunc_out>
900005b8:	00078a63          	beqz	a5,900005cc <xputc+0x5c>
900005bc:	80c1a703          	lw	a4,-2036(gp) # 800007c4 <xfunc_out>
900005c0:	fef44783          	lbu	a5,-17(s0)
900005c4:	00078513          	mv	a0,a5
900005c8:	000700e7          	jalr	a4
900005cc:	01c12083          	lw	ra,28(sp)
900005d0:	01812403          	lw	s0,24(sp)
900005d4:	02010113          	addi	sp,sp,32
900005d8:	00008067          	ret

900005dc <xputs>:
900005dc:	fe010113          	addi	sp,sp,-32
900005e0:	00112e23          	sw	ra,28(sp)
900005e4:	00812c23          	sw	s0,24(sp)
900005e8:	02010413          	addi	s0,sp,32
900005ec:	fea42623          	sw	a0,-20(s0)
900005f0:	01c0006f          	j	9000060c <xputs+0x30>
900005f4:	fec42783          	lw	a5,-20(s0)
900005f8:	00178713          	addi	a4,a5,1
900005fc:	fee42623          	sw	a4,-20(s0)
90000600:	0007c783          	lbu	a5,0(a5)
90000604:	00078513          	mv	a0,a5
90000608:	f69ff0ef          	jal	ra,90000570 <xputc>
9000060c:	fec42783          	lw	a5,-20(s0)
90000610:	0007c783          	lbu	a5,0(a5)
90000614:	fe0790e3          	bnez	a5,900005f4 <xputs+0x18>
90000618:	00000013          	nop
9000061c:	01c12083          	lw	ra,28(sp)
90000620:	01812403          	lw	s0,24(sp)
90000624:	02010113          	addi	sp,sp,32
90000628:	00008067          	ret

9000062c <xvprintf>:
9000062c:	f8010113          	addi	sp,sp,-128
90000630:	06112e23          	sw	ra,124(sp)
90000634:	06812c23          	sw	s0,120(sp)
90000638:	08010413          	addi	s0,sp,128
9000063c:	f8a42623          	sw	a0,-116(s0)
90000640:	f8b42423          	sw	a1,-120(s0)
90000644:	f8c42783          	lw	a5,-116(s0)
90000648:	00178713          	addi	a4,a5,1
9000064c:	f8e42623          	sw	a4,-116(s0)
90000650:	0007c783          	lbu	a5,0(a5)
90000654:	fcf40ba3          	sb	a5,-41(s0)
90000658:	fd744783          	lbu	a5,-41(s0)
9000065c:	48078863          	beqz	a5,90000aec <xvprintf+0x4c0>
90000660:	fd744703          	lbu	a4,-41(s0)
90000664:	02500793          	li	a5,37
90000668:	00f70a63          	beq	a4,a5,9000067c <xvprintf+0x50>
9000066c:	fd744783          	lbu	a5,-41(s0)
90000670:	00078513          	mv	a0,a5
90000674:	efdff0ef          	jal	ra,90000570 <xputc>
90000678:	4700006f          	j	90000ae8 <xvprintf+0x4bc>
9000067c:	fc042e23          	sw	zero,-36(s0)
90000680:	f8c42783          	lw	a5,-116(s0)
90000684:	00178713          	addi	a4,a5,1
90000688:	f8e42623          	sw	a4,-116(s0)
9000068c:	0007c783          	lbu	a5,0(a5)
90000690:	fcf40ba3          	sb	a5,-41(s0)
90000694:	fd744703          	lbu	a4,-41(s0)
90000698:	03000793          	li	a5,48
9000069c:	02f71263          	bne	a4,a5,900006c0 <xvprintf+0x94>
900006a0:	00100793          	li	a5,1
900006a4:	fcf42e23          	sw	a5,-36(s0)
900006a8:	f8c42783          	lw	a5,-116(s0)
900006ac:	00178713          	addi	a4,a5,1
900006b0:	f8e42623          	sw	a4,-116(s0)
900006b4:	0007c783          	lbu	a5,0(a5)
900006b8:	fcf40ba3          	sb	a5,-41(s0)
900006bc:	02c0006f          	j	900006e8 <xvprintf+0xbc>
900006c0:	fd744703          	lbu	a4,-41(s0)
900006c4:	02d00793          	li	a5,45
900006c8:	02f71063          	bne	a4,a5,900006e8 <xvprintf+0xbc>
900006cc:	00200793          	li	a5,2
900006d0:	fcf42e23          	sw	a5,-36(s0)
900006d4:	f8c42783          	lw	a5,-116(s0)
900006d8:	00178713          	addi	a4,a5,1
900006dc:	f8e42623          	sw	a4,-116(s0)
900006e0:	0007c783          	lbu	a5,0(a5)
900006e4:	fcf40ba3          	sb	a5,-41(s0)
900006e8:	fe042023          	sw	zero,-32(s0)
900006ec:	0400006f          	j	9000072c <xvprintf+0x100>
900006f0:	fe042703          	lw	a4,-32(s0)
900006f4:	00070793          	mv	a5,a4
900006f8:	00279793          	slli	a5,a5,0x2
900006fc:	00e787b3          	add	a5,a5,a4
90000700:	00179793          	slli	a5,a5,0x1
90000704:	00078713          	mv	a4,a5
90000708:	fd744783          	lbu	a5,-41(s0)
9000070c:	00f707b3          	add	a5,a4,a5
90000710:	fd078793          	addi	a5,a5,-48
90000714:	fef42023          	sw	a5,-32(s0)
90000718:	f8c42783          	lw	a5,-116(s0)
9000071c:	00178713          	addi	a4,a5,1
90000720:	f8e42623          	sw	a4,-116(s0)
90000724:	0007c783          	lbu	a5,0(a5)
90000728:	fcf40ba3          	sb	a5,-41(s0)
9000072c:	fd744703          	lbu	a4,-41(s0)
90000730:	02f00793          	li	a5,47
90000734:	00e7f863          	bgeu	a5,a4,90000744 <xvprintf+0x118>
90000738:	fd744703          	lbu	a4,-41(s0)
9000073c:	03900793          	li	a5,57
90000740:	fae7f8e3          	bgeu	a5,a4,900006f0 <xvprintf+0xc4>
90000744:	fd744703          	lbu	a4,-41(s0)
90000748:	06c00793          	li	a5,108
9000074c:	00f70863          	beq	a4,a5,9000075c <xvprintf+0x130>
90000750:	fd744703          	lbu	a4,-41(s0)
90000754:	04c00793          	li	a5,76
90000758:	02f71263          	bne	a4,a5,9000077c <xvprintf+0x150>
9000075c:	fdc42783          	lw	a5,-36(s0)
90000760:	0047e793          	ori	a5,a5,4
90000764:	fcf42e23          	sw	a5,-36(s0)
90000768:	f8c42783          	lw	a5,-116(s0)
9000076c:	00178713          	addi	a4,a5,1
90000770:	f8e42623          	sw	a4,-116(s0)
90000774:	0007c783          	lbu	a5,0(a5)
90000778:	fcf40ba3          	sb	a5,-41(s0)
9000077c:	fd744783          	lbu	a5,-41(s0)
90000780:	36078a63          	beqz	a5,90000af4 <xvprintf+0x4c8>
90000784:	fd744783          	lbu	a5,-41(s0)
90000788:	fcf40b23          	sb	a5,-42(s0)
9000078c:	fd644703          	lbu	a4,-42(s0)
90000790:	06000793          	li	a5,96
90000794:	00e7f863          	bgeu	a5,a4,900007a4 <xvprintf+0x178>
90000798:	fd644783          	lbu	a5,-42(s0)
9000079c:	fe078793          	addi	a5,a5,-32
900007a0:	fcf40b23          	sb	a5,-42(s0)
900007a4:	fd644783          	lbu	a5,-42(s0)
900007a8:	fbe78793          	addi	a5,a5,-66
900007ac:	01600713          	li	a4,22
900007b0:	14f76a63          	bltu	a4,a5,90000904 <xvprintf+0x2d8>
900007b4:	00279713          	slli	a4,a5,0x2
900007b8:	800007b7          	lui	a5,0x80000
900007bc:	00478793          	addi	a5,a5,4 # 80000004 <_data_lma+0xefffac9c>
900007c0:	00f707b3          	add	a5,a4,a5
900007c4:	0007a783          	lw	a5,0(a5)
900007c8:	00078067          	jr	a5
900007cc:	f8842783          	lw	a5,-120(s0)
900007d0:	00478713          	addi	a4,a5,4
900007d4:	f8e42423          	sw	a4,-120(s0)
900007d8:	0007a783          	lw	a5,0(a5)
900007dc:	fcf42823          	sw	a5,-48(s0)
900007e0:	fe042223          	sw	zero,-28(s0)
900007e4:	0100006f          	j	900007f4 <xvprintf+0x1c8>
900007e8:	fe442783          	lw	a5,-28(s0)
900007ec:	00178793          	addi	a5,a5,1
900007f0:	fef42223          	sw	a5,-28(s0)
900007f4:	fd042703          	lw	a4,-48(s0)
900007f8:	fe442783          	lw	a5,-28(s0)
900007fc:	00f707b3          	add	a5,a4,a5
90000800:	0007c783          	lbu	a5,0(a5)
90000804:	fe0792e3          	bnez	a5,900007e8 <xvprintf+0x1bc>
90000808:	00c0006f          	j	90000814 <xvprintf+0x1e8>
9000080c:	02000513          	li	a0,32
90000810:	d61ff0ef          	jal	ra,90000570 <xputc>
90000814:	fdc42783          	lw	a5,-36(s0)
90000818:	0027f793          	andi	a5,a5,2
9000081c:	00079c63          	bnez	a5,90000834 <xvprintf+0x208>
90000820:	fe442783          	lw	a5,-28(s0)
90000824:	00178713          	addi	a4,a5,1
90000828:	fee42223          	sw	a4,-28(s0)
9000082c:	fe042703          	lw	a4,-32(s0)
90000830:	fce7eee3          	bltu	a5,a4,9000080c <xvprintf+0x1e0>
90000834:	fd042503          	lw	a0,-48(s0)
90000838:	da5ff0ef          	jal	ra,900005dc <xputs>
9000083c:	00c0006f          	j	90000848 <xvprintf+0x21c>
90000840:	02000513          	li	a0,32
90000844:	d2dff0ef          	jal	ra,90000570 <xputc>
90000848:	fe442783          	lw	a5,-28(s0)
9000084c:	00178713          	addi	a4,a5,1
90000850:	fee42223          	sw	a4,-28(s0)
90000854:	fe042703          	lw	a4,-32(s0)
90000858:	fee7e4e3          	bltu	a5,a4,90000840 <xvprintf+0x214>
9000085c:	28c0006f          	j	90000ae8 <xvprintf+0x4bc>
90000860:	f8842783          	lw	a5,-120(s0)
90000864:	00778793          	addi	a5,a5,7
90000868:	ff87f793          	andi	a5,a5,-8
9000086c:	00878713          	addi	a4,a5,8
90000870:	f8e42423          	sw	a4,-120(s0)
90000874:	0047a803          	lw	a6,4(a5)
90000878:	0007a783          	lw	a5,0(a5)
9000087c:	00078513          	mv	a0,a5
90000880:	00080593          	mv	a1,a6
90000884:	7c0040ef          	jal	ra,90005044 <__truncdfsf2>
90000888:	00050793          	mv	a5,a0
9000088c:	fcf42623          	sw	a5,-52(s0)
90000890:	f9c40793          	addi	a5,s0,-100
90000894:	00300613          	li	a2,3
90000898:	00078593          	mv	a1,a5
9000089c:	fcc42503          	lw	a0,-52(s0)
900008a0:	b79ff0ef          	jal	ra,90000418 <floatToStr>
900008a4:	f9c40793          	addi	a5,s0,-100
900008a8:	00078513          	mv	a0,a5
900008ac:	d31ff0ef          	jal	ra,900005dc <xputs>
900008b0:	d95ff06f          	j	90000644 <xvprintf+0x18>
900008b4:	f8842783          	lw	a5,-120(s0)
900008b8:	00478713          	addi	a4,a5,4
900008bc:	f8e42423          	sw	a4,-120(s0)
900008c0:	0007a783          	lw	a5,0(a5)
900008c4:	0ff7f793          	andi	a5,a5,255
900008c8:	00078513          	mv	a0,a5
900008cc:	ca5ff0ef          	jal	ra,90000570 <xputc>
900008d0:	2180006f          	j	90000ae8 <xvprintf+0x4bc>
900008d4:	00200793          	li	a5,2
900008d8:	fef42623          	sw	a5,-20(s0)
900008dc:	0380006f          	j	90000914 <xvprintf+0x2e8>
900008e0:	00800793          	li	a5,8
900008e4:	fef42623          	sw	a5,-20(s0)
900008e8:	02c0006f          	j	90000914 <xvprintf+0x2e8>
900008ec:	00a00793          	li	a5,10
900008f0:	fef42623          	sw	a5,-20(s0)
900008f4:	0200006f          	j	90000914 <xvprintf+0x2e8>
900008f8:	01000793          	li	a5,16
900008fc:	fef42623          	sw	a5,-20(s0)
90000900:	0140006f          	j	90000914 <xvprintf+0x2e8>
90000904:	fd744783          	lbu	a5,-41(s0)
90000908:	00078513          	mv	a0,a5
9000090c:	c65ff0ef          	jal	ra,90000570 <xputc>
90000910:	1d80006f          	j	90000ae8 <xvprintf+0x4bc>
90000914:	fdc42783          	lw	a5,-36(s0)
90000918:	0047f793          	andi	a5,a5,4
9000091c:	00078c63          	beqz	a5,90000934 <xvprintf+0x308>
90000920:	f8842783          	lw	a5,-120(s0)
90000924:	00478713          	addi	a4,a5,4
90000928:	f8e42423          	sw	a4,-120(s0)
9000092c:	0007a783          	lw	a5,0(a5)
90000930:	0340006f          	j	90000964 <xvprintf+0x338>
90000934:	fd644703          	lbu	a4,-42(s0)
90000938:	04400793          	li	a5,68
9000093c:	00f71c63          	bne	a4,a5,90000954 <xvprintf+0x328>
90000940:	f8842783          	lw	a5,-120(s0)
90000944:	00478713          	addi	a4,a5,4
90000948:	f8e42423          	sw	a4,-120(s0)
9000094c:	0007a783          	lw	a5,0(a5)
90000950:	0140006f          	j	90000964 <xvprintf+0x338>
90000954:	f8842783          	lw	a5,-120(s0)
90000958:	00478713          	addi	a4,a5,4
9000095c:	f8e42423          	sw	a4,-120(s0)
90000960:	0007a783          	lw	a5,0(a5)
90000964:	fcf42c23          	sw	a5,-40(s0)
90000968:	fd644703          	lbu	a4,-42(s0)
9000096c:	04400793          	li	a5,68
90000970:	02f71263          	bne	a4,a5,90000994 <xvprintf+0x368>
90000974:	fd842783          	lw	a5,-40(s0)
90000978:	0007de63          	bgez	a5,90000994 <xvprintf+0x368>
9000097c:	fd842783          	lw	a5,-40(s0)
90000980:	40f007b3          	neg	a5,a5
90000984:	fcf42c23          	sw	a5,-40(s0)
90000988:	fdc42783          	lw	a5,-36(s0)
9000098c:	0087e793          	ori	a5,a5,8
90000990:	fcf42e23          	sw	a5,-36(s0)
90000994:	fe042423          	sw	zero,-24(s0)
90000998:	fd842703          	lw	a4,-40(s0)
9000099c:	fec42783          	lw	a5,-20(s0)
900009a0:	02f777b3          	remu	a5,a4,a5
900009a4:	fcf40b23          	sb	a5,-42(s0)
900009a8:	fd842703          	lw	a4,-40(s0)
900009ac:	fec42783          	lw	a5,-20(s0)
900009b0:	02f757b3          	divu	a5,a4,a5
900009b4:	fcf42c23          	sw	a5,-40(s0)
900009b8:	fd644703          	lbu	a4,-42(s0)
900009bc:	00900793          	li	a5,9
900009c0:	02e7f463          	bgeu	a5,a4,900009e8 <xvprintf+0x3bc>
900009c4:	fd744703          	lbu	a4,-41(s0)
900009c8:	07800793          	li	a5,120
900009cc:	00f71663          	bne	a4,a5,900009d8 <xvprintf+0x3ac>
900009d0:	02700793          	li	a5,39
900009d4:	0080006f          	j	900009dc <xvprintf+0x3b0>
900009d8:	00700793          	li	a5,7
900009dc:	fd644703          	lbu	a4,-42(s0)
900009e0:	00e787b3          	add	a5,a5,a4
900009e4:	fcf40b23          	sb	a5,-42(s0)
900009e8:	fe842783          	lw	a5,-24(s0)
900009ec:	00178713          	addi	a4,a5,1
900009f0:	fee42423          	sw	a4,-24(s0)
900009f4:	fd644703          	lbu	a4,-42(s0)
900009f8:	03070713          	addi	a4,a4,48
900009fc:	0ff77713          	andi	a4,a4,255
90000a00:	ff040693          	addi	a3,s0,-16
90000a04:	00f687b3          	add	a5,a3,a5
90000a08:	fce78623          	sb	a4,-52(a5)
90000a0c:	fd842783          	lw	a5,-40(s0)
90000a10:	00078863          	beqz	a5,90000a20 <xvprintf+0x3f4>
90000a14:	fe842703          	lw	a4,-24(s0)
90000a18:	00f00793          	li	a5,15
90000a1c:	f6e7fee3          	bgeu	a5,a4,90000998 <xvprintf+0x36c>
90000a20:	fdc42783          	lw	a5,-36(s0)
90000a24:	0087f793          	andi	a5,a5,8
90000a28:	02078063          	beqz	a5,90000a48 <xvprintf+0x41c>
90000a2c:	fe842783          	lw	a5,-24(s0)
90000a30:	00178713          	addi	a4,a5,1
90000a34:	fee42423          	sw	a4,-24(s0)
90000a38:	ff040713          	addi	a4,s0,-16
90000a3c:	00f707b3          	add	a5,a4,a5
90000a40:	02d00713          	li	a4,45
90000a44:	fce78623          	sb	a4,-52(a5)
90000a48:	fe842783          	lw	a5,-24(s0)
90000a4c:	fef42223          	sw	a5,-28(s0)
90000a50:	fdc42783          	lw	a5,-36(s0)
90000a54:	0017f793          	andi	a5,a5,1
90000a58:	00078663          	beqz	a5,90000a64 <xvprintf+0x438>
90000a5c:	03000793          	li	a5,48
90000a60:	0080006f          	j	90000a68 <xvprintf+0x43c>
90000a64:	02000793          	li	a5,32
90000a68:	fcf40b23          	sb	a5,-42(s0)
90000a6c:	0100006f          	j	90000a7c <xvprintf+0x450>
90000a70:	fd644783          	lbu	a5,-42(s0)
90000a74:	00078513          	mv	a0,a5
90000a78:	af9ff0ef          	jal	ra,90000570 <xputc>
90000a7c:	fdc42783          	lw	a5,-36(s0)
90000a80:	0027f793          	andi	a5,a5,2
90000a84:	00079c63          	bnez	a5,90000a9c <xvprintf+0x470>
90000a88:	fe442783          	lw	a5,-28(s0)
90000a8c:	00178713          	addi	a4,a5,1
90000a90:	fee42223          	sw	a4,-28(s0)
90000a94:	fe042703          	lw	a4,-32(s0)
90000a98:	fce7ece3          	bltu	a5,a4,90000a70 <xvprintf+0x444>
90000a9c:	fe842783          	lw	a5,-24(s0)
90000aa0:	fff78793          	addi	a5,a5,-1
90000aa4:	fef42423          	sw	a5,-24(s0)
90000aa8:	fe842783          	lw	a5,-24(s0)
90000aac:	ff040713          	addi	a4,s0,-16
90000ab0:	00f707b3          	add	a5,a4,a5
90000ab4:	fcc7c783          	lbu	a5,-52(a5)
90000ab8:	00078513          	mv	a0,a5
90000abc:	ab5ff0ef          	jal	ra,90000570 <xputc>
90000ac0:	fe842783          	lw	a5,-24(s0)
90000ac4:	fc079ce3          	bnez	a5,90000a9c <xvprintf+0x470>
90000ac8:	00c0006f          	j	90000ad4 <xvprintf+0x4a8>
90000acc:	02000513          	li	a0,32
90000ad0:	aa1ff0ef          	jal	ra,90000570 <xputc>
90000ad4:	fe442783          	lw	a5,-28(s0)
90000ad8:	00178713          	addi	a4,a5,1
90000adc:	fee42223          	sw	a4,-28(s0)
90000ae0:	fe042703          	lw	a4,-32(s0)
90000ae4:	fee7e4e3          	bltu	a5,a4,90000acc <xvprintf+0x4a0>
90000ae8:	b5dff06f          	j	90000644 <xvprintf+0x18>
90000aec:	00000013          	nop
90000af0:	0080006f          	j	90000af8 <xvprintf+0x4cc>
90000af4:	00000013          	nop
90000af8:	00000013          	nop
90000afc:	07c12083          	lw	ra,124(sp)
90000b00:	07812403          	lw	s0,120(sp)
90000b04:	08010113          	addi	sp,sp,128
90000b08:	00008067          	ret

90000b0c <xprintf>:
90000b0c:	fb010113          	addi	sp,sp,-80
90000b10:	02112623          	sw	ra,44(sp)
90000b14:	02812423          	sw	s0,40(sp)
90000b18:	03010413          	addi	s0,sp,48
90000b1c:	fca42e23          	sw	a0,-36(s0)
90000b20:	00b42223          	sw	a1,4(s0)
90000b24:	00c42423          	sw	a2,8(s0)
90000b28:	00d42623          	sw	a3,12(s0)
90000b2c:	00e42823          	sw	a4,16(s0)
90000b30:	00f42a23          	sw	a5,20(s0)
90000b34:	01042c23          	sw	a6,24(s0)
90000b38:	01142e23          	sw	a7,28(s0)
90000b3c:	02040793          	addi	a5,s0,32
90000b40:	fe478793          	addi	a5,a5,-28
90000b44:	fef42623          	sw	a5,-20(s0)
90000b48:	fec42783          	lw	a5,-20(s0)
90000b4c:	00078593          	mv	a1,a5
90000b50:	fdc42503          	lw	a0,-36(s0)
90000b54:	ad9ff0ef          	jal	ra,9000062c <xvprintf>
90000b58:	00000013          	nop
90000b5c:	02c12083          	lw	ra,44(sp)
90000b60:	02812403          	lw	s0,40(sp)
90000b64:	05010113          	addi	sp,sp,80
90000b68:	00008067          	ret

90000b6c <uart_putc>:
90000b6c:	fe010113          	addi	sp,sp,-32
90000b70:	00812e23          	sw	s0,28(sp)
90000b74:	02010413          	addi	s0,sp,32
90000b78:	00050793          	mv	a5,a0
90000b7c:	fef407a3          	sb	a5,-17(s0)
90000b80:	00000013          	nop
90000b84:	300007b7          	lui	a5,0x30000
90000b88:	00478793          	addi	a5,a5,4 # 30000004 <__stack_size+0x2fffe004>
90000b8c:	0007a783          	lw	a5,0(a5)
90000b90:	0017f793          	andi	a5,a5,1
90000b94:	fe0798e3          	bnez	a5,90000b84 <uart_putc+0x18>
90000b98:	300007b7          	lui	a5,0x30000
90000b9c:	00c78793          	addi	a5,a5,12 # 3000000c <__stack_size+0x2fffe00c>
90000ba0:	fef44703          	lbu	a4,-17(s0)
90000ba4:	00e7a023          	sw	a4,0(a5)
90000ba8:	00000013          	nop
90000bac:	01c12403          	lw	s0,28(sp)
90000bb0:	02010113          	addi	sp,sp,32
90000bb4:	00008067          	ret

90000bb8 <uart_getc>:
90000bb8:	ff010113          	addi	sp,sp,-16
90000bbc:	00812623          	sw	s0,12(sp)
90000bc0:	01010413          	addi	s0,sp,16
90000bc4:	300007b7          	lui	a5,0x30000
90000bc8:	00478793          	addi	a5,a5,4 # 30000004 <__stack_size+0x2fffe004>
90000bcc:	0007a703          	lw	a4,0(a5)
90000bd0:	300007b7          	lui	a5,0x30000
90000bd4:	00478793          	addi	a5,a5,4 # 30000004 <__stack_size+0x2fffe004>
90000bd8:	ffd77713          	andi	a4,a4,-3
90000bdc:	00e7a023          	sw	a4,0(a5)
90000be0:	00000013          	nop
90000be4:	300007b7          	lui	a5,0x30000
90000be8:	00478793          	addi	a5,a5,4 # 30000004 <__stack_size+0x2fffe004>
90000bec:	0007a783          	lw	a5,0(a5)
90000bf0:	0027f793          	andi	a5,a5,2
90000bf4:	fe0788e3          	beqz	a5,90000be4 <uart_getc+0x2c>
90000bf8:	300007b7          	lui	a5,0x30000
90000bfc:	01078793          	addi	a5,a5,16 # 30000010 <__stack_size+0x2fffe010>
90000c00:	0007a783          	lw	a5,0(a5)
90000c04:	0ff7f793          	andi	a5,a5,255
90000c08:	00078513          	mv	a0,a5
90000c0c:	00c12403          	lw	s0,12(sp)
90000c10:	01010113          	addi	sp,sp,16
90000c14:	00008067          	ret

90000c18 <uart_init>:
90000c18:	ff010113          	addi	sp,sp,-16
90000c1c:	00812623          	sw	s0,12(sp)
90000c20:	01010413          	addi	s0,sp,16
90000c24:	300007b7          	lui	a5,0x30000
90000c28:	00300713          	li	a4,3
90000c2c:	00e7a023          	sw	a4,0(a5) # 30000000 <__stack_size+0x2fffe000>
90000c30:	90001737          	lui	a4,0x90001
90000c34:	b6c70713          	addi	a4,a4,-1172 # 90000b6c <_data_lma+0xffffb804>
90000c38:	80e1a623          	sw	a4,-2036(gp) # 800007c4 <xfunc_out>
90000c3c:	00000013          	nop
90000c40:	00c12403          	lw	s0,12(sp)
90000c44:	01010113          	addi	sp,sp,16
90000c48:	00008067          	ret

90000c4c <pow>:
90000c4c:	fa010113          	addi	sp,sp,-96
90000c50:	03712e23          	sw	s7,60(sp)
90000c54:	f0000b97          	auipc	s7,0xf0000
90000c58:	b64b8b93          	addi	s7,s7,-1180 # 800007b8 <__fdlib_version>
90000c5c:	04812c23          	sw	s0,88(sp)
90000c60:	04912a23          	sw	s1,84(sp)
90000c64:	05212823          	sw	s2,80(sp)
90000c68:	05312623          	sw	s3,76(sp)
90000c6c:	05412423          	sw	s4,72(sp)
90000c70:	05512223          	sw	s5,68(sp)
90000c74:	05612023          	sw	s6,64(sp)
90000c78:	04112e23          	sw	ra,92(sp)
90000c7c:	00050913          	mv	s2,a0
90000c80:	00058993          	mv	s3,a1
90000c84:	00060413          	mv	s0,a2
90000c88:	00068493          	mv	s1,a3
90000c8c:	49c000ef          	jal	ra,90001128 <__ieee754_pow>
90000c90:	000bab03          	lw	s6,0(s7)
90000c94:	fff00793          	li	a5,-1
90000c98:	00050a93          	mv	s5,a0
90000c9c:	00058a13          	mv	s4,a1
90000ca0:	0afb0463          	beq	s6,a5,90000d48 <pow+0xfc>
90000ca4:	00040613          	mv	a2,s0
90000ca8:	00048693          	mv	a3,s1
90000cac:	00040513          	mv	a0,s0
90000cb0:	00048593          	mv	a1,s1
90000cb4:	4ed030ef          	jal	ra,900049a0 <__unorddf2>
90000cb8:	08051863          	bnez	a0,90000d48 <pow+0xfc>
90000cbc:	00090613          	mv	a2,s2
90000cc0:	00098693          	mv	a3,s3
90000cc4:	00090513          	mv	a0,s2
90000cc8:	00098593          	mv	a1,s3
90000ccc:	4d5030ef          	jal	ra,900049a0 <__unorddf2>
90000cd0:	00000613          	li	a2,0
90000cd4:	00000693          	li	a3,0
90000cd8:	1a051c63          	bnez	a0,90000e90 <pow+0x244>
90000cdc:	00090513          	mv	a0,s2
90000ce0:	00098593          	mv	a1,s3
90000ce4:	369020ef          	jal	ra,9000384c <__eqdf2>
90000ce8:	08051a63          	bnez	a0,90000d7c <pow+0x130>
90000cec:	00000613          	li	a2,0
90000cf0:	00000693          	li	a3,0
90000cf4:	00040513          	mv	a0,s0
90000cf8:	00048593          	mv	a1,s1
90000cfc:	351020ef          	jal	ra,9000384c <__eqdf2>
90000d00:	10051263          	bnez	a0,90000e04 <pow+0x1b8>
90000d04:	00100793          	li	a5,1
90000d08:	00f12423          	sw	a5,8(sp)
90000d0c:	effff797          	auipc	a5,0xeffff
90000d10:	38c78793          	addi	a5,a5,908 # 80000098 <_data+0x98>
90000d14:	00f12623          	sw	a5,12(sp)
90000d18:	02012423          	sw	zero,40(sp)
90000d1c:	01212823          	sw	s2,16(sp)
90000d20:	01312a23          	sw	s3,20(sp)
90000d24:	00812c23          	sw	s0,24(sp)
90000d28:	00912e23          	sw	s1,28(sp)
90000d2c:	02012023          	sw	zero,32(sp)
90000d30:	02012223          	sw	zero,36(sp)
90000d34:	1a0b0a63          	beqz	s6,90000ee8 <pow+0x29c>
90000d38:	effff797          	auipc	a5,0xeffff
90000d3c:	33078793          	addi	a5,a5,816 # 80000068 <_data+0x68>
90000d40:	0007aa83          	lw	s5,0(a5)
90000d44:	0047aa03          	lw	s4,4(a5)
90000d48:	05c12083          	lw	ra,92(sp)
90000d4c:	05812403          	lw	s0,88(sp)
90000d50:	000a8513          	mv	a0,s5
90000d54:	000a0593          	mv	a1,s4
90000d58:	05412483          	lw	s1,84(sp)
90000d5c:	05012903          	lw	s2,80(sp)
90000d60:	04c12983          	lw	s3,76(sp)
90000d64:	04812a03          	lw	s4,72(sp)
90000d68:	04412a83          	lw	s5,68(sp)
90000d6c:	04012b03          	lw	s6,64(sp)
90000d70:	03c12b83          	lw	s7,60(sp)
90000d74:	06010113          	addi	sp,sp,96
90000d78:	00008067          	ret
90000d7c:	000a8513          	mv	a0,s5
90000d80:	000a0593          	mv	a1,s4
90000d84:	638010ef          	jal	ra,900023bc <finite>
90000d88:	18050663          	beqz	a0,90000f14 <pow+0x2c8>
90000d8c:	000a8513          	mv	a0,s5
90000d90:	000a0593          	mv	a1,s4
90000d94:	00000613          	li	a2,0
90000d98:	00000693          	li	a3,0
90000d9c:	2b1020ef          	jal	ra,9000384c <__eqdf2>
90000da0:	fa0514e3          	bnez	a0,90000d48 <pow+0xfc>
90000da4:	00090513          	mv	a0,s2
90000da8:	00098593          	mv	a1,s3
90000dac:	610010ef          	jal	ra,900023bc <finite>
90000db0:	f8050ce3          	beqz	a0,90000d48 <pow+0xfc>
90000db4:	00040513          	mv	a0,s0
90000db8:	00048593          	mv	a1,s1
90000dbc:	600010ef          	jal	ra,900023bc <finite>
90000dc0:	f80504e3          	beqz	a0,90000d48 <pow+0xfc>
90000dc4:	00400793          	li	a5,4
90000dc8:	000ba703          	lw	a4,0(s7)
90000dcc:	00f12423          	sw	a5,8(sp)
90000dd0:	effff797          	auipc	a5,0xeffff
90000dd4:	2c878793          	addi	a5,a5,712 # 80000098 <_data+0x98>
90000dd8:	00f12623          	sw	a5,12(sp)
90000ddc:	02012423          	sw	zero,40(sp)
90000de0:	01212823          	sw	s2,16(sp)
90000de4:	01312a23          	sw	s3,20(sp)
90000de8:	00812c23          	sw	s0,24(sp)
90000dec:	00912e23          	sw	s1,28(sp)
90000df0:	02012023          	sw	zero,32(sp)
90000df4:	02012223          	sw	zero,36(sp)
90000df8:	00200793          	li	a5,2
90000dfc:	1cf71a63          	bne	a4,a5,90000fd0 <pow+0x384>
90000e00:	1dc0006f          	j	90000fdc <pow+0x390>
90000e04:	00040513          	mv	a0,s0
90000e08:	00048593          	mv	a1,s1
90000e0c:	5b0010ef          	jal	ra,900023bc <finite>
90000e10:	f2050ce3          	beqz	a0,90000d48 <pow+0xfc>
90000e14:	00000613          	li	a2,0
90000e18:	00000693          	li	a3,0
90000e1c:	00040513          	mv	a0,s0
90000e20:	00048593          	mv	a1,s1
90000e24:	3a5020ef          	jal	ra,900039c8 <__ledf2>
90000e28:	f20550e3          	bgez	a0,90000d48 <pow+0xfc>
90000e2c:	00100713          	li	a4,1
90000e30:	000ba783          	lw	a5,0(s7)
90000e34:	00e12423          	sw	a4,8(sp)
90000e38:	effff717          	auipc	a4,0xeffff
90000e3c:	26070713          	addi	a4,a4,608 # 80000098 <_data+0x98>
90000e40:	00e12623          	sw	a4,12(sp)
90000e44:	02012423          	sw	zero,40(sp)
90000e48:	01212823          	sw	s2,16(sp)
90000e4c:	01312a23          	sw	s3,20(sp)
90000e50:	00812c23          	sw	s0,24(sp)
90000e54:	00912e23          	sw	s1,28(sp)
90000e58:	18079a63          	bnez	a5,90000fec <pow+0x3a0>
90000e5c:	02012023          	sw	zero,32(sp)
90000e60:	02012223          	sw	zero,36(sp)
90000e64:	00810513          	addi	a0,sp,8
90000e68:	56c010ef          	jal	ra,900023d4 <matherr>
90000e6c:	1a050063          	beqz	a0,9000100c <pow+0x3c0>
90000e70:	02812783          	lw	a5,40(sp)
90000e74:	00078863          	beqz	a5,90000e84 <pow+0x238>
90000e78:	454040ef          	jal	ra,900052cc <__errno>
90000e7c:	02812783          	lw	a5,40(sp)
90000e80:	00f52023          	sw	a5,0(a0)
90000e84:	02012a83          	lw	s5,32(sp)
90000e88:	02412a03          	lw	s4,36(sp)
90000e8c:	ebdff06f          	j	90000d48 <pow+0xfc>
90000e90:	00040513          	mv	a0,s0
90000e94:	00048593          	mv	a1,s1
90000e98:	1b5020ef          	jal	ra,9000384c <__eqdf2>
90000e9c:	ea0516e3          	bnez	a0,90000d48 <pow+0xfc>
90000ea0:	effff797          	auipc	a5,0xeffff
90000ea4:	1c878793          	addi	a5,a5,456 # 80000068 <_data+0x68>
90000ea8:	0047aa03          	lw	s4,4(a5)
90000eac:	0007aa83          	lw	s5,0(a5)
90000eb0:	00100693          	li	a3,1
90000eb4:	00d12423          	sw	a3,8(sp)
90000eb8:	effff697          	auipc	a3,0xeffff
90000ebc:	1e068693          	addi	a3,a3,480 # 80000098 <_data+0x98>
90000ec0:	00d12623          	sw	a3,12(sp)
90000ec4:	02012423          	sw	zero,40(sp)
90000ec8:	01212823          	sw	s2,16(sp)
90000ecc:	01312a23          	sw	s3,20(sp)
90000ed0:	00812c23          	sw	s0,24(sp)
90000ed4:	00912e23          	sw	s1,28(sp)
90000ed8:	03512023          	sw	s5,32(sp)
90000edc:	03412223          	sw	s4,36(sp)
90000ee0:	00200793          	li	a5,2
90000ee4:	e6fb02e3          	beq	s6,a5,90000d48 <pow+0xfc>
90000ee8:	00810513          	addi	a0,sp,8
90000eec:	4e8010ef          	jal	ra,900023d4 <matherr>
90000ef0:	12050663          	beqz	a0,9000101c <pow+0x3d0>
90000ef4:	02812783          	lw	a5,40(sp)
90000ef8:	f80786e3          	beqz	a5,90000e84 <pow+0x238>
90000efc:	3d0040ef          	jal	ra,900052cc <__errno>
90000f00:	02812783          	lw	a5,40(sp)
90000f04:	02012a83          	lw	s5,32(sp)
90000f08:	02412a03          	lw	s4,36(sp)
90000f0c:	00f52023          	sw	a5,0(a0)
90000f10:	e39ff06f          	j	90000d48 <pow+0xfc>
90000f14:	00090513          	mv	a0,s2
90000f18:	00098593          	mv	a1,s3
90000f1c:	4a0010ef          	jal	ra,900023bc <finite>
90000f20:	e60506e3          	beqz	a0,90000d8c <pow+0x140>
90000f24:	00040513          	mv	a0,s0
90000f28:	00048593          	mv	a1,s1
90000f2c:	490010ef          	jal	ra,900023bc <finite>
90000f30:	e4050ee3          	beqz	a0,90000d8c <pow+0x140>
90000f34:	000a0693          	mv	a3,s4
90000f38:	000a0593          	mv	a1,s4
90000f3c:	000a8613          	mv	a2,s5
90000f40:	000a8513          	mv	a0,s5
90000f44:	000baa03          	lw	s4,0(s7)
90000f48:	259030ef          	jal	ra,900049a0 <__unorddf2>
90000f4c:	18051463          	bnez	a0,900010d4 <pow+0x488>
90000f50:	effff797          	auipc	a5,0xeffff
90000f54:	12878793          	addi	a5,a5,296 # 80000078 <_data+0x78>
90000f58:	0007a603          	lw	a2,0(a5)
90000f5c:	0047a683          	lw	a3,4(a5)
90000f60:	00300793          	li	a5,3
90000f64:	00040513          	mv	a0,s0
90000f68:	00048593          	mv	a1,s1
90000f6c:	00f12423          	sw	a5,8(sp)
90000f70:	effff797          	auipc	a5,0xeffff
90000f74:	12878793          	addi	a5,a5,296 # 80000098 <_data+0x98>
90000f78:	00812c23          	sw	s0,24(sp)
90000f7c:	00912e23          	sw	s1,28(sp)
90000f80:	00f12623          	sw	a5,12(sp)
90000f84:	02012423          	sw	zero,40(sp)
90000f88:	01212823          	sw	s2,16(sp)
90000f8c:	01312a23          	sw	s3,20(sp)
90000f90:	335020ef          	jal	ra,90003ac4 <__muldf3>
90000f94:	00050413          	mv	s0,a0
90000f98:	00058493          	mv	s1,a1
90000f9c:	080a1863          	bnez	s4,9000102c <pow+0x3e0>
90000fa0:	effff797          	auipc	a5,0xeffff
90000fa4:	0e078793          	addi	a5,a5,224 # 80000080 <_data+0x80>
90000fa8:	0007a703          	lw	a4,0(a5)
90000fac:	0047a783          	lw	a5,4(a5)
90000fb0:	00000613          	li	a2,0
90000fb4:	00000693          	li	a3,0
90000fb8:	00090513          	mv	a0,s2
90000fbc:	00098593          	mv	a1,s3
90000fc0:	02e12023          	sw	a4,32(sp)
90000fc4:	02f12223          	sw	a5,36(sp)
90000fc8:	201020ef          	jal	ra,900039c8 <__ledf2>
90000fcc:	08054e63          	bltz	a0,90001068 <pow+0x41c>
90000fd0:	00810513          	addi	a0,sp,8
90000fd4:	400010ef          	jal	ra,900023d4 <matherr>
90000fd8:	e8051ce3          	bnez	a0,90000e70 <pow+0x224>
90000fdc:	2f0040ef          	jal	ra,900052cc <__errno>
90000fe0:	02200793          	li	a5,34
90000fe4:	00f52023          	sw	a5,0(a0)
90000fe8:	e89ff06f          	j	90000e70 <pow+0x224>
90000fec:	effff697          	auipc	a3,0xeffff
90000ff0:	08468693          	addi	a3,a3,132 # 80000070 <_data+0x70>
90000ff4:	0006a603          	lw	a2,0(a3)
90000ff8:	0046a683          	lw	a3,4(a3)
90000ffc:	00200713          	li	a4,2
90001000:	02c12023          	sw	a2,32(sp)
90001004:	02d12223          	sw	a3,36(sp)
90001008:	e4e79ee3          	bne	a5,a4,90000e64 <pow+0x218>
9000100c:	2c0040ef          	jal	ra,900052cc <__errno>
90001010:	02100793          	li	a5,33
90001014:	00f52023          	sw	a5,0(a0)
90001018:	e59ff06f          	j	90000e70 <pow+0x224>
9000101c:	2b0040ef          	jal	ra,900052cc <__errno>
90001020:	02100793          	li	a5,33
90001024:	00f52023          	sw	a5,0(a0)
90001028:	ecdff06f          	j	90000ef4 <pow+0x2a8>
9000102c:	effff797          	auipc	a5,0xeffff
90001030:	06478793          	addi	a5,a5,100 # 80000090 <_data+0x90>
90001034:	0007a703          	lw	a4,0(a5)
90001038:	0047a783          	lw	a5,4(a5)
9000103c:	00000613          	li	a2,0
90001040:	00000693          	li	a3,0
90001044:	00090513          	mv	a0,s2
90001048:	00098593          	mv	a1,s3
9000104c:	02e12023          	sw	a4,32(sp)
90001050:	02f12223          	sw	a5,36(sp)
90001054:	175020ef          	jal	ra,900039c8 <__ledf2>
90001058:	04054663          	bltz	a0,900010a4 <pow+0x458>
9000105c:	00200793          	li	a5,2
90001060:	f6fa0ee3          	beq	s4,a5,90000fdc <pow+0x390>
90001064:	f6dff06f          	j	90000fd0 <pow+0x384>
90001068:	00040513          	mv	a0,s0
9000106c:	00048593          	mv	a1,s1
90001070:	380010ef          	jal	ra,900023f0 <rint>
90001074:	00040613          	mv	a2,s0
90001078:	00048693          	mv	a3,s1
9000107c:	7d0020ef          	jal	ra,9000384c <__eqdf2>
90001080:	04050663          	beqz	a0,900010cc <pow+0x480>
90001084:	effff797          	auipc	a5,0xeffff
90001088:	00478793          	addi	a5,a5,4 # 80000088 <_data+0x88>
9000108c:	0007a703          	lw	a4,0(a5)
90001090:	0047a783          	lw	a5,4(a5)
90001094:	000baa03          	lw	s4,0(s7)
90001098:	02e12023          	sw	a4,32(sp)
9000109c:	02f12223          	sw	a5,36(sp)
900010a0:	fbdff06f          	j	9000105c <pow+0x410>
900010a4:	00040513          	mv	a0,s0
900010a8:	00048593          	mv	a1,s1
900010ac:	344010ef          	jal	ra,900023f0 <rint>
900010b0:	00040613          	mv	a2,s0
900010b4:	00048693          	mv	a3,s1
900010b8:	794020ef          	jal	ra,9000384c <__eqdf2>
900010bc:	00050863          	beqz	a0,900010cc <pow+0x480>
900010c0:	effff797          	auipc	a5,0xeffff
900010c4:	fb078793          	addi	a5,a5,-80 # 80000070 <_data+0x70>
900010c8:	fc5ff06f          	j	9000108c <pow+0x440>
900010cc:	000baa03          	lw	s4,0(s7)
900010d0:	f8dff06f          	j	9000105c <pow+0x410>
900010d4:	00100793          	li	a5,1
900010d8:	00f12423          	sw	a5,8(sp)
900010dc:	effff797          	auipc	a5,0xeffff
900010e0:	fbc78793          	addi	a5,a5,-68 # 80000098 <_data+0x98>
900010e4:	00f12623          	sw	a5,12(sp)
900010e8:	02012423          	sw	zero,40(sp)
900010ec:	01212823          	sw	s2,16(sp)
900010f0:	01312a23          	sw	s3,20(sp)
900010f4:	00812c23          	sw	s0,24(sp)
900010f8:	00912e23          	sw	s1,28(sp)
900010fc:	d60a00e3          	beqz	s4,90000e5c <pow+0x210>
90001100:	00000613          	li	a2,0
90001104:	00000693          	li	a3,0
90001108:	00060513          	mv	a0,a2
9000110c:	00068593          	mv	a1,a3
90001110:	7a1010ef          	jal	ra,900030b0 <__divdf3>
90001114:	02a12023          	sw	a0,32(sp)
90001118:	02b12223          	sw	a1,36(sp)
9000111c:	00200793          	li	a5,2
90001120:	eefa06e3          	beq	s4,a5,9000100c <pow+0x3c0>
90001124:	d41ff06f          	j	90000e64 <pow+0x218>

90001128 <__ieee754_pow>:
90001128:	80000837          	lui	a6,0x80000
9000112c:	f8010113          	addi	sp,sp,-128
90001130:	fff84813          	not	a6,a6
90001134:	07212823          	sw	s2,112(sp)
90001138:	0106f933          	and	s2,a3,a6
9000113c:	06112e23          	sw	ra,124(sp)
90001140:	06812c23          	sw	s0,120(sp)
90001144:	06912a23          	sw	s1,116(sp)
90001148:	07312623          	sw	s3,108(sp)
9000114c:	07412423          	sw	s4,104(sp)
90001150:	07512223          	sw	s5,100(sp)
90001154:	07612023          	sw	s6,96(sp)
90001158:	05712e23          	sw	s7,92(sp)
9000115c:	05812c23          	sw	s8,88(sp)
90001160:	05912a23          	sw	s9,84(sp)
90001164:	05a12823          	sw	s10,80(sp)
90001168:	05b12623          	sw	s11,76(sp)
9000116c:	00c967b3          	or	a5,s2,a2
90001170:	10078063          	beqz	a5,90001270 <__ieee754_pow+0x148>
90001174:	00b87433          	and	s0,a6,a1
90001178:	7ff007b7          	lui	a5,0x7ff00
9000117c:	00058a93          	mv	s5,a1
90001180:	00050a13          	mv	s4,a0
90001184:	0487dc63          	bge	a5,s0,900011dc <__ieee754_pow+0xb4>
90001188:	c0100837          	lui	a6,0xc0100
9000118c:	01040833          	add	a6,s0,a6
90001190:	00a86833          	or	a6,a6,a0
90001194:	3ff005b7          	lui	a1,0x3ff00
90001198:	00000513          	li	a0,0
9000119c:	0e081463          	bnez	a6,90001284 <__ieee754_pow+0x15c>
900011a0:	07c12083          	lw	ra,124(sp)
900011a4:	07812403          	lw	s0,120(sp)
900011a8:	07412483          	lw	s1,116(sp)
900011ac:	07012903          	lw	s2,112(sp)
900011b0:	06c12983          	lw	s3,108(sp)
900011b4:	06812a03          	lw	s4,104(sp)
900011b8:	06412a83          	lw	s5,100(sp)
900011bc:	06012b03          	lw	s6,96(sp)
900011c0:	05c12b83          	lw	s7,92(sp)
900011c4:	05812c03          	lw	s8,88(sp)
900011c8:	05412c83          	lw	s9,84(sp)
900011cc:	05012d03          	lw	s10,80(sp)
900011d0:	04c12d83          	lw	s11,76(sp)
900011d4:	08010113          	addi	sp,sp,128
900011d8:	00008067          	ret
900011dc:	0af40063          	beq	s0,a5,9000127c <__ieee754_pow+0x154>
900011e0:	fb27c4e3          	blt	a5,s2,90001188 <__ieee754_pow+0x60>
900011e4:	7ff007b7          	lui	a5,0x7ff00
900011e8:	24f90e63          	beq	s2,a5,90001444 <__ieee754_pow+0x31c>
900011ec:	00058493          	mv	s1,a1
900011f0:	00050993          	mv	s3,a0
900011f4:	00060c93          	mv	s9,a2
900011f8:	00068d93          	mv	s11,a3
900011fc:	00000d13          	li	s10,0
90001200:	0c0ac463          	bltz	s5,900012c8 <__ieee754_pow+0x1a0>
90001204:	100c9463          	bnez	s9,9000130c <__ieee754_pow+0x1e4>
90001208:	7ff006b7          	lui	a3,0x7ff00
9000120c:	1ad90663          	beq	s2,a3,900013b8 <__ieee754_pow+0x290>
90001210:	3ff006b7          	lui	a3,0x3ff00
90001214:	1cd90a63          	beq	s2,a3,900013e8 <__ieee754_pow+0x2c0>
90001218:	400006b7          	lui	a3,0x40000
9000121c:	60dd80e3          	beq	s11,a3,9000201c <__ieee754_pow+0xef4>
90001220:	3fe006b7          	lui	a3,0x3fe00
90001224:	0edd9463          	bne	s11,a3,9000130c <__ieee754_pow+0x1e4>
90001228:	0e0ac263          	bltz	s5,9000130c <__ieee754_pow+0x1e4>
9000122c:	07812403          	lw	s0,120(sp)
90001230:	07c12083          	lw	ra,124(sp)
90001234:	07012903          	lw	s2,112(sp)
90001238:	06812a03          	lw	s4,104(sp)
9000123c:	06412a83          	lw	s5,100(sp)
90001240:	06012b03          	lw	s6,96(sp)
90001244:	05c12b83          	lw	s7,92(sp)
90001248:	05812c03          	lw	s8,88(sp)
9000124c:	05412c83          	lw	s9,84(sp)
90001250:	05012d03          	lw	s10,80(sp)
90001254:	04c12d83          	lw	s11,76(sp)
90001258:	00098513          	mv	a0,s3
9000125c:	00048593          	mv	a1,s1
90001260:	06c12983          	lw	s3,108(sp)
90001264:	07412483          	lw	s1,116(sp)
90001268:	08010113          	addi	sp,sp,128
9000126c:	6950006f          	j	90002100 <__ieee754_sqrt>
90001270:	00000513          	li	a0,0
90001274:	3ff005b7          	lui	a1,0x3ff00
90001278:	f29ff06f          	j	900011a0 <__ieee754_pow+0x78>
9000127c:	00051463          	bnez	a0,90001284 <__ieee754_pow+0x15c>
90001280:	f72452e3          	bge	s0,s2,900011e4 <__ieee754_pow+0xbc>
90001284:	07812403          	lw	s0,120(sp)
90001288:	07c12083          	lw	ra,124(sp)
9000128c:	07412483          	lw	s1,116(sp)
90001290:	07012903          	lw	s2,112(sp)
90001294:	06c12983          	lw	s3,108(sp)
90001298:	06812a03          	lw	s4,104(sp)
9000129c:	06412a83          	lw	s5,100(sp)
900012a0:	06012b03          	lw	s6,96(sp)
900012a4:	05c12b83          	lw	s7,92(sp)
900012a8:	05812c03          	lw	s8,88(sp)
900012ac:	05412c83          	lw	s9,84(sp)
900012b0:	05012d03          	lw	s10,80(sp)
900012b4:	04c12d83          	lw	s11,76(sp)
900012b8:	effff517          	auipc	a0,0xeffff
900012bc:	ee850513          	addi	a0,a0,-280 # 800001a0 <_data+0x1a0>
900012c0:	08010113          	addi	sp,sp,128
900012c4:	1180106f          	j	900023dc <nan>
900012c8:	434006b7          	lui	a3,0x43400
900012cc:	18d95063          	bge	s2,a3,9000144c <__ieee754_pow+0x324>
900012d0:	3ff006b7          	lui	a3,0x3ff00
900012d4:	02d94a63          	blt	s2,a3,90001308 <__ieee754_pow+0x1e0>
900012d8:	41495693          	srai	a3,s2,0x14
900012dc:	c0168693          	addi	a3,a3,-1023 # 3feffc01 <__stack_size+0x3fefdc01>
900012e0:	01400613          	li	a2,20
900012e4:	54d658e3          	bge	a2,a3,90002034 <__ieee754_pow+0xf0c>
900012e8:	03400613          	li	a2,52
900012ec:	40d606b3          	sub	a3,a2,a3
900012f0:	00dcd633          	srl	a2,s9,a3
900012f4:	00d616b3          	sll	a3,a2,a3
900012f8:	01969863          	bne	a3,s9,90001308 <__ieee754_pow+0x1e0>
900012fc:	00167613          	andi	a2,a2,1
90001300:	00200313          	li	t1,2
90001304:	40c30d33          	sub	s10,t1,a2
90001308:	f00c84e3          	beqz	s9,90001210 <__ieee754_pow+0xe8>
9000130c:	00098513          	mv	a0,s3
90001310:	00048593          	mv	a1,s1
90001314:	09c010ef          	jal	ra,900023b0 <fabs>
90001318:	040a0c63          	beqz	s4,90001370 <__ieee754_pow+0x248>
9000131c:	01f4de13          	srli	t3,s1,0x1f
90001320:	fffe0e13          	addi	t3,t3,-1
90001324:	01cd66b3          	or	a3,s10,t3
90001328:	12068663          	beqz	a3,90001454 <__ieee754_pow+0x32c>
9000132c:	41e006b7          	lui	a3,0x41e00
90001330:	1526d463          	bge	a3,s2,90001478 <__ieee754_pow+0x350>
90001334:	43f006b7          	lui	a3,0x43f00
90001338:	3526dce3          	bge	a3,s2,90001e90 <__ieee754_pow+0xd68>
9000133c:	3ff00737          	lui	a4,0x3ff00
90001340:	0ce45a63          	bge	s0,a4,90001414 <__ieee754_pow+0x2ec>
90001344:	080ddc63          	bgez	s11,900013dc <__ieee754_pow+0x2b4>
90001348:	effff797          	auipc	a5,0xeffff
9000134c:	d7878793          	addi	a5,a5,-648 # 800000c0 <_data+0xc0>
90001350:	0007a603          	lw	a2,0(a5)
90001354:	0047a683          	lw	a3,4(a5)
90001358:	00060513          	mv	a0,a2
9000135c:	00068593          	mv	a1,a3
90001360:	764020ef          	jal	ra,90003ac4 <__muldf3>
90001364:	e3dff06f          	j	900011a0 <__ieee754_pow+0x78>
90001368:	048010ef          	jal	ra,900023b0 <fabs>
9000136c:	0e0a1463          	bnez	s4,90001454 <__ieee754_pow+0x32c>
90001370:	00040a63          	beqz	s0,90001384 <__ieee754_pow+0x25c>
90001374:	00249693          	slli	a3,s1,0x2
90001378:	0026d693          	srli	a3,a3,0x2
9000137c:	3ff00637          	lui	a2,0x3ff00
90001380:	f8c69ee3          	bne	a3,a2,9000131c <__ieee754_pow+0x1f4>
90001384:	080dcc63          	bltz	s11,9000141c <__ieee754_pow+0x2f4>
90001388:	e00adce3          	bgez	s5,900011a0 <__ieee754_pow+0x78>
9000138c:	c01007b7          	lui	a5,0xc0100
90001390:	00f407b3          	add	a5,s0,a5
90001394:	01a7e7b3          	or	a5,a5,s10
90001398:	4e0796e3          	bnez	a5,90002084 <__ieee754_pow+0xf5c>
9000139c:	00050613          	mv	a2,a0
900013a0:	00058693          	mv	a3,a1
900013a4:	581020ef          	jal	ra,90004124 <__subdf3>
900013a8:	00050613          	mv	a2,a0
900013ac:	00058693          	mv	a3,a1
900013b0:	501010ef          	jal	ra,900030b0 <__divdf3>
900013b4:	dedff06f          	j	900011a0 <__ieee754_pow+0x78>
900013b8:	c0100537          	lui	a0,0xc0100
900013bc:	00a40533          	add	a0,s0,a0
900013c0:	01356533          	or	a0,a0,s3
900013c4:	ea0506e3          	beqz	a0,90001270 <__ieee754_pow+0x148>
900013c8:	3ff00737          	lui	a4,0x3ff00
900013cc:	2ae442e3          	blt	s0,a4,90001e70 <__ieee754_pow+0xd48>
900013d0:	000d8593          	mv	a1,s11
900013d4:	00000513          	li	a0,0
900013d8:	dc0dd4e3          	bgez	s11,900011a0 <__ieee754_pow+0x78>
900013dc:	00000513          	li	a0,0
900013e0:	00000593          	li	a1,0
900013e4:	dbdff06f          	j	900011a0 <__ieee754_pow+0x78>
900013e8:	00098513          	mv	a0,s3
900013ec:	00048593          	mv	a1,s1
900013f0:	da0dd8e3          	bgez	s11,900011a0 <__ieee754_pow+0x78>
900013f4:	effff797          	auipc	a5,0xeffff
900013f8:	c7478793          	addi	a5,a5,-908 # 80000068 <_data+0x68>
900013fc:	0007a503          	lw	a0,0(a5)
90001400:	0047a583          	lw	a1,4(a5)
90001404:	00098613          	mv	a2,s3
90001408:	00048693          	mv	a3,s1
9000140c:	4a5010ef          	jal	ra,900030b0 <__divdf3>
90001410:	d91ff06f          	j	900011a0 <__ieee754_pow+0x78>
90001414:	f3b04ae3          	bgtz	s11,90001348 <__ieee754_pow+0x220>
90001418:	fc5ff06f          	j	900013dc <__ieee754_pow+0x2b4>
9000141c:	effff717          	auipc	a4,0xeffff
90001420:	c4c70713          	addi	a4,a4,-948 # 80000068 <_data+0x68>
90001424:	00050c93          	mv	s9,a0
90001428:	00058793          	mv	a5,a1
9000142c:	00072503          	lw	a0,0(a4)
90001430:	00472583          	lw	a1,4(a4)
90001434:	000c8613          	mv	a2,s9
90001438:	00078693          	mv	a3,a5
9000143c:	475010ef          	jal	ra,900030b0 <__divdf3>
90001440:	f49ff06f          	j	90001388 <__ieee754_pow+0x260>
90001444:	da0604e3          	beqz	a2,900011ec <__ieee754_pow+0xc4>
90001448:	d41ff06f          	j	90001188 <__ieee754_pow+0x60>
9000144c:	00200d13          	li	s10,2
90001450:	db5ff06f          	j	90001204 <__ieee754_pow+0xdc>
90001454:	00098613          	mv	a2,s3
90001458:	00048693          	mv	a3,s1
9000145c:	00098513          	mv	a0,s3
90001460:	00048593          	mv	a1,s1
90001464:	4c1020ef          	jal	ra,90004124 <__subdf3>
90001468:	00050613          	mv	a2,a0
9000146c:	00058693          	mv	a3,a1
90001470:	441010ef          	jal	ra,900030b0 <__divdf3>
90001474:	d2dff06f          	j	900011a0 <__ieee754_pow+0x78>
90001478:	7ff006b7          	lui	a3,0x7ff00
9000147c:	0096f4b3          	and	s1,a3,s1
90001480:	00000613          	li	a2,0
90001484:	02049463          	bnez	s1,900014ac <__ieee754_pow+0x384>
90001488:	effff697          	auipc	a3,0xeffff
9000148c:	c6868693          	addi	a3,a3,-920 # 800000f0 <_data+0xf0>
90001490:	0006a603          	lw	a2,0(a3)
90001494:	0046a683          	lw	a3,4(a3)
90001498:	01c12423          	sw	t3,8(sp)
9000149c:	628020ef          	jal	ra,90003ac4 <__muldf3>
900014a0:	00812e03          	lw	t3,8(sp)
900014a4:	00058413          	mv	s0,a1
900014a8:	fcb00613          	li	a2,-53
900014ac:	001005b7          	lui	a1,0x100
900014b0:	41445e93          	srai	t4,s0,0x14
900014b4:	fff58813          	addi	a6,a1,-1 # fffff <__stack_size+0xfdfff>
900014b8:	0003a6b7          	lui	a3,0x3a
900014bc:	c01e8e93          	addi	t4,t4,-1023
900014c0:	01047833          	and	a6,s0,a6
900014c4:	3ff00c37          	lui	s8,0x3ff00
900014c8:	88e68693          	addi	a3,a3,-1906 # 3988e <__stack_size+0x3788e>
900014cc:	00ce8eb3          	add	t4,t4,a2
900014d0:	01886c33          	or	s8,a6,s8
900014d4:	1b06d8e3          	bge	a3,a6,90001e84 <__ieee754_pow+0xd5c>
900014d8:	000bb6b7          	lui	a3,0xbb
900014dc:	67968693          	addi	a3,a3,1657 # bb679 <__stack_size+0xb9679>
900014e0:	3b06dee3          	bge	a3,a6,9000209c <__ieee754_pow+0xf74>
900014e4:	effffa97          	auipc	s5,0xeffff
900014e8:	b84a8a93          	addi	s5,s5,-1148 # 80000068 <_data+0x68>
900014ec:	001e8e93          	addi	t4,t4,1
900014f0:	40bc0c33          	sub	s8,s8,a1
900014f4:	000aa783          	lw	a5,0(s5)
900014f8:	004aa803          	lw	a6,4(s5)
900014fc:	00012823          	sw	zero,16(sp)
90001500:	00012a23          	sw	zero,20(sp)
90001504:	02012c23          	sw	zero,56(sp)
90001508:	02012e23          	sw	zero,60(sp)
9000150c:	00000993          	li	s3,0
90001510:	00f12423          	sw	a5,8(sp)
90001514:	01012623          	sw	a6,12(sp)
90001518:	00812403          	lw	s0,8(sp)
9000151c:	00c12483          	lw	s1,12(sp)
90001520:	000c0593          	mv	a1,s8
90001524:	00040613          	mv	a2,s0
90001528:	00048693          	mv	a3,s1
9000152c:	03d12a23          	sw	t4,52(sp)
90001530:	03c12823          	sw	t3,48(sp)
90001534:	00050913          	mv	s2,a0
90001538:	3ed020ef          	jal	ra,90004124 <__subdf3>
9000153c:	00050b13          	mv	s6,a0
90001540:	00058b93          	mv	s7,a1
90001544:	00040613          	mv	a2,s0
90001548:	00048693          	mv	a3,s1
9000154c:	00090513          	mv	a0,s2
90001550:	000c0593          	mv	a1,s8
90001554:	00812423          	sw	s0,8(sp)
90001558:	00912623          	sw	s1,12(sp)
9000155c:	2d0010ef          	jal	ra,9000282c <__adddf3>
90001560:	00050613          	mv	a2,a0
90001564:	00058693          	mv	a3,a1
90001568:	000aa503          	lw	a0,0(s5)
9000156c:	004aa583          	lw	a1,4(s5)
90001570:	00000493          	li	s1,0
90001574:	33d010ef          	jal	ra,900030b0 <__divdf3>
90001578:	00050613          	mv	a2,a0
9000157c:	00058693          	mv	a3,a1
90001580:	00a12c23          	sw	a0,24(sp)
90001584:	00b12e23          	sw	a1,28(sp)
90001588:	000b0513          	mv	a0,s6
9000158c:	000b8593          	mv	a1,s7
90001590:	534020ef          	jal	ra,90003ac4 <__muldf3>
90001594:	401c5f13          	srai	t5,s8,0x1
90001598:	200006b7          	lui	a3,0x20000
9000159c:	00df6f33          	or	t5,t5,a3
900015a0:	000806b7          	lui	a3,0x80
900015a4:	00df0f33          	add	t5,t5,a3
900015a8:	013f09b3          	add	s3,t5,s3
900015ac:	00050a13          	mv	s4,a0
900015b0:	00098693          	mv	a3,s3
900015b4:	00000613          	li	a2,0
900015b8:	00048513          	mv	a0,s1
900015bc:	00058413          	mv	s0,a1
900015c0:	504020ef          	jal	ra,90003ac4 <__muldf3>
900015c4:	00050613          	mv	a2,a0
900015c8:	00058693          	mv	a3,a1
900015cc:	000b0513          	mv	a0,s6
900015d0:	000b8593          	mv	a1,s7
900015d4:	351020ef          	jal	ra,90004124 <__subdf3>
900015d8:	00812603          	lw	a2,8(sp)
900015dc:	00c12683          	lw	a3,12(sp)
900015e0:	00050b13          	mv	s6,a0
900015e4:	00058b93          	mv	s7,a1
900015e8:	00000513          	li	a0,0
900015ec:	00098593          	mv	a1,s3
900015f0:	335020ef          	jal	ra,90004124 <__subdf3>
900015f4:	00050613          	mv	a2,a0
900015f8:	00058693          	mv	a3,a1
900015fc:	00090513          	mv	a0,s2
90001600:	000c0593          	mv	a1,s8
90001604:	321020ef          	jal	ra,90004124 <__subdf3>
90001608:	00048613          	mv	a2,s1
9000160c:	00040693          	mv	a3,s0
90001610:	4b4020ef          	jal	ra,90003ac4 <__muldf3>
90001614:	00050613          	mv	a2,a0
90001618:	00058693          	mv	a3,a1
9000161c:	000b0513          	mv	a0,s6
90001620:	000b8593          	mv	a1,s7
90001624:	301020ef          	jal	ra,90004124 <__subdf3>
90001628:	01812803          	lw	a6,24(sp)
9000162c:	01c12883          	lw	a7,28(sp)
90001630:	effffb97          	auipc	s7,0xeffff
90001634:	af8b8b93          	addi	s7,s7,-1288 # 80000128 <_data+0x128>
90001638:	00080613          	mv	a2,a6
9000163c:	00088693          	mv	a3,a7
90001640:	484020ef          	jal	ra,90003ac4 <__muldf3>
90001644:	000a0613          	mv	a2,s4
90001648:	00040693          	mv	a3,s0
9000164c:	00a12423          	sw	a0,8(sp)
90001650:	00b12623          	sw	a1,12(sp)
90001654:	000a0513          	mv	a0,s4
90001658:	00040593          	mv	a1,s0
9000165c:	468020ef          	jal	ra,90003ac4 <__muldf3>
90001660:	effff697          	auipc	a3,0xeffff
90001664:	a9868693          	addi	a3,a3,-1384 # 800000f8 <_data+0xf8>
90001668:	0006a603          	lw	a2,0(a3)
9000166c:	0046a683          	lw	a3,4(a3)
90001670:	00050913          	mv	s2,a0
90001674:	00058993          	mv	s3,a1
90001678:	44c020ef          	jal	ra,90003ac4 <__muldf3>
9000167c:	effff697          	auipc	a3,0xeffff
90001680:	a8468693          	addi	a3,a3,-1404 # 80000100 <_data+0x100>
90001684:	0006a603          	lw	a2,0(a3)
90001688:	0046a683          	lw	a3,4(a3)
9000168c:	00000b13          	li	s6,0
90001690:	00000c13          	li	s8,0
90001694:	198010ef          	jal	ra,9000282c <__adddf3>
90001698:	00090613          	mv	a2,s2
9000169c:	00098693          	mv	a3,s3
900016a0:	424020ef          	jal	ra,90003ac4 <__muldf3>
900016a4:	effff697          	auipc	a3,0xeffff
900016a8:	a6468693          	addi	a3,a3,-1436 # 80000108 <_data+0x108>
900016ac:	0006a603          	lw	a2,0(a3)
900016b0:	0046a683          	lw	a3,4(a3)
900016b4:	178010ef          	jal	ra,9000282c <__adddf3>
900016b8:	00090613          	mv	a2,s2
900016bc:	00098693          	mv	a3,s3
900016c0:	404020ef          	jal	ra,90003ac4 <__muldf3>
900016c4:	effff697          	auipc	a3,0xeffff
900016c8:	a4c68693          	addi	a3,a3,-1460 # 80000110 <_data+0x110>
900016cc:	0006a603          	lw	a2,0(a3)
900016d0:	0046a683          	lw	a3,4(a3)
900016d4:	158010ef          	jal	ra,9000282c <__adddf3>
900016d8:	00090613          	mv	a2,s2
900016dc:	00098693          	mv	a3,s3
900016e0:	3e4020ef          	jal	ra,90003ac4 <__muldf3>
900016e4:	effff697          	auipc	a3,0xeffff
900016e8:	a3468693          	addi	a3,a3,-1484 # 80000118 <_data+0x118>
900016ec:	0006a603          	lw	a2,0(a3)
900016f0:	0046a683          	lw	a3,4(a3)
900016f4:	138010ef          	jal	ra,9000282c <__adddf3>
900016f8:	00090613          	mv	a2,s2
900016fc:	00098693          	mv	a3,s3
90001700:	3c4020ef          	jal	ra,90003ac4 <__muldf3>
90001704:	effff697          	auipc	a3,0xeffff
90001708:	a1c68693          	addi	a3,a3,-1508 # 80000120 <_data+0x120>
9000170c:	0006a603          	lw	a2,0(a3)
90001710:	0046a683          	lw	a3,4(a3)
90001714:	118010ef          	jal	ra,9000282c <__adddf3>
90001718:	00090613          	mv	a2,s2
9000171c:	00098693          	mv	a3,s3
90001720:	00a12c23          	sw	a0,24(sp)
90001724:	00b12e23          	sw	a1,28(sp)
90001728:	00090513          	mv	a0,s2
9000172c:	00098593          	mv	a1,s3
90001730:	394020ef          	jal	ra,90003ac4 <__muldf3>
90001734:	01812703          	lw	a4,24(sp)
90001738:	01c12783          	lw	a5,28(sp)
9000173c:	00050613          	mv	a2,a0
90001740:	00058693          	mv	a3,a1
90001744:	00070513          	mv	a0,a4
90001748:	00078593          	mv	a1,a5
9000174c:	378020ef          	jal	ra,90003ac4 <__muldf3>
90001750:	00050913          	mv	s2,a0
90001754:	00058993          	mv	s3,a1
90001758:	00048613          	mv	a2,s1
9000175c:	00040693          	mv	a3,s0
90001760:	000a0513          	mv	a0,s4
90001764:	00040593          	mv	a1,s0
90001768:	0c4010ef          	jal	ra,9000282c <__adddf3>
9000176c:	00812603          	lw	a2,8(sp)
90001770:	00c12683          	lw	a3,12(sp)
90001774:	350020ef          	jal	ra,90003ac4 <__muldf3>
90001778:	00090613          	mv	a2,s2
9000177c:	00098693          	mv	a3,s3
90001780:	0ac010ef          	jal	ra,9000282c <__adddf3>
90001784:	00050913          	mv	s2,a0
90001788:	00058993          	mv	s3,a1
9000178c:	00048613          	mv	a2,s1
90001790:	00040693          	mv	a3,s0
90001794:	00048513          	mv	a0,s1
90001798:	00040593          	mv	a1,s0
9000179c:	328020ef          	jal	ra,90003ac4 <__muldf3>
900017a0:	000ba603          	lw	a2,0(s7)
900017a4:	004ba683          	lw	a3,4(s7)
900017a8:	02a12423          	sw	a0,40(sp)
900017ac:	02b12623          	sw	a1,44(sp)
900017b0:	07c010ef          	jal	ra,9000282c <__adddf3>
900017b4:	00090613          	mv	a2,s2
900017b8:	00098693          	mv	a3,s3
900017bc:	01212c23          	sw	s2,24(sp)
900017c0:	01312e23          	sw	s3,28(sp)
900017c4:	068010ef          	jal	ra,9000282c <__adddf3>
900017c8:	00058913          	mv	s2,a1
900017cc:	000b0613          	mv	a2,s6
900017d0:	00058693          	mv	a3,a1
900017d4:	00048513          	mv	a0,s1
900017d8:	00040593          	mv	a1,s0
900017dc:	2e8020ef          	jal	ra,90003ac4 <__muldf3>
900017e0:	000ba603          	lw	a2,0(s7)
900017e4:	004ba683          	lw	a3,4(s7)
900017e8:	02a12023          	sw	a0,32(sp)
900017ec:	02b12223          	sw	a1,36(sp)
900017f0:	000b0513          	mv	a0,s6
900017f4:	00090593          	mv	a1,s2
900017f8:	12d020ef          	jal	ra,90004124 <__subdf3>
900017fc:	02812f03          	lw	t5,40(sp)
90001800:	02c12f83          	lw	t6,44(sp)
90001804:	000f0613          	mv	a2,t5
90001808:	000f8693          	mv	a3,t6
9000180c:	119020ef          	jal	ra,90004124 <__subdf3>
90001810:	00050613          	mv	a2,a0
90001814:	00058693          	mv	a3,a1
90001818:	01812503          	lw	a0,24(sp)
9000181c:	01c12583          	lw	a1,28(sp)
90001820:	105020ef          	jal	ra,90004124 <__subdf3>
90001824:	000a0613          	mv	a2,s4
90001828:	00040693          	mv	a3,s0
9000182c:	298020ef          	jal	ra,90003ac4 <__muldf3>
90001830:	00050413          	mv	s0,a0
90001834:	00058493          	mv	s1,a1
90001838:	00812503          	lw	a0,8(sp)
9000183c:	00c12583          	lw	a1,12(sp)
90001840:	000b0613          	mv	a2,s6
90001844:	00090693          	mv	a3,s2
90001848:	27c020ef          	jal	ra,90003ac4 <__muldf3>
9000184c:	00050613          	mv	a2,a0
90001850:	00058693          	mv	a3,a1
90001854:	00040513          	mv	a0,s0
90001858:	00048593          	mv	a1,s1
9000185c:	7d1000ef          	jal	ra,9000282c <__adddf3>
90001860:	02012b03          	lw	s6,32(sp)
90001864:	02412b83          	lw	s7,36(sp)
90001868:	00050413          	mv	s0,a0
9000186c:	00058493          	mv	s1,a1
90001870:	00050613          	mv	a2,a0
90001874:	00058693          	mv	a3,a1
90001878:	000b0513          	mv	a0,s6
9000187c:	000b8593          	mv	a1,s7
90001880:	7ad000ef          	jal	ra,9000282c <__adddf3>
90001884:	effff697          	auipc	a3,0xeffff
90001888:	8ac68693          	addi	a3,a3,-1876 # 80000130 <_data+0x130>
9000188c:	0006a603          	lw	a2,0(a3)
90001890:	0046a683          	lw	a3,4(a3)
90001894:	000c0513          	mv	a0,s8
90001898:	00058a13          	mv	s4,a1
9000189c:	228020ef          	jal	ra,90003ac4 <__muldf3>
900018a0:	00050913          	mv	s2,a0
900018a4:	00058993          	mv	s3,a1
900018a8:	000b0613          	mv	a2,s6
900018ac:	000b8693          	mv	a3,s7
900018b0:	000c0513          	mv	a0,s8
900018b4:	000a0593          	mv	a1,s4
900018b8:	06d020ef          	jal	ra,90004124 <__subdf3>
900018bc:	00050613          	mv	a2,a0
900018c0:	00058693          	mv	a3,a1
900018c4:	00040513          	mv	a0,s0
900018c8:	00048593          	mv	a1,s1
900018cc:	059020ef          	jal	ra,90004124 <__subdf3>
900018d0:	effff697          	auipc	a3,0xeffff
900018d4:	86868693          	addi	a3,a3,-1944 # 80000138 <_data+0x138>
900018d8:	0006a603          	lw	a2,0(a3)
900018dc:	0046a683          	lw	a3,4(a3)
900018e0:	1e4020ef          	jal	ra,90003ac4 <__muldf3>
900018e4:	effff697          	auipc	a3,0xeffff
900018e8:	85c68693          	addi	a3,a3,-1956 # 80000140 <_data+0x140>
900018ec:	0006a603          	lw	a2,0(a3)
900018f0:	0046a683          	lw	a3,4(a3)
900018f4:	00050413          	mv	s0,a0
900018f8:	00058493          	mv	s1,a1
900018fc:	000c0513          	mv	a0,s8
90001900:	000a0593          	mv	a1,s4
90001904:	1c0020ef          	jal	ra,90003ac4 <__muldf3>
90001908:	00050613          	mv	a2,a0
9000190c:	00058693          	mv	a3,a1
90001910:	00040513          	mv	a0,s0
90001914:	00048593          	mv	a1,s1
90001918:	715000ef          	jal	ra,9000282c <__adddf3>
9000191c:	03812603          	lw	a2,56(sp)
90001920:	03c12683          	lw	a3,60(sp)
90001924:	709000ef          	jal	ra,9000282c <__adddf3>
90001928:	03412e83          	lw	t4,52(sp)
9000192c:	00050b13          	mv	s6,a0
90001930:	00058b93          	mv	s7,a1
90001934:	000e8513          	mv	a0,t4
90001938:	140030ef          	jal	ra,90004a78 <__floatsidf>
9000193c:	00050413          	mv	s0,a0
90001940:	00058493          	mv	s1,a1
90001944:	000b0613          	mv	a2,s6
90001948:	000b8693          	mv	a3,s7
9000194c:	00090513          	mv	a0,s2
90001950:	00098593          	mv	a1,s3
90001954:	6d9000ef          	jal	ra,9000282c <__adddf3>
90001958:	01012603          	lw	a2,16(sp)
9000195c:	01412683          	lw	a3,20(sp)
90001960:	6cd000ef          	jal	ra,9000282c <__adddf3>
90001964:	00040613          	mv	a2,s0
90001968:	00048693          	mv	a3,s1
9000196c:	6c1000ef          	jal	ra,9000282c <__adddf3>
90001970:	00000613          	li	a2,0
90001974:	00060513          	mv	a0,a2
90001978:	00048693          	mv	a3,s1
9000197c:	00040613          	mv	a2,s0
90001980:	00058493          	mv	s1,a1
90001984:	00050413          	mv	s0,a0
90001988:	79c020ef          	jal	ra,90004124 <__subdf3>
9000198c:	01012603          	lw	a2,16(sp)
90001990:	01412683          	lw	a3,20(sp)
90001994:	790020ef          	jal	ra,90004124 <__subdf3>
90001998:	00090613          	mv	a2,s2
9000199c:	00098693          	mv	a3,s3
900019a0:	784020ef          	jal	ra,90004124 <__subdf3>
900019a4:	00050613          	mv	a2,a0
900019a8:	00058693          	mv	a3,a1
900019ac:	000b0513          	mv	a0,s6
900019b0:	000b8593          	mv	a1,s7
900019b4:	770020ef          	jal	ra,90004124 <__subdf3>
900019b8:	03012e03          	lw	t3,48(sp)
900019bc:	00050913          	mv	s2,a0
900019c0:	00058993          	mv	s3,a1
900019c4:	fffd0313          	addi	t1,s10,-1
900019c8:	01c36e33          	or	t3,t1,t3
900019cc:	480e1863          	bnez	t3,90001e5c <__ieee754_pow+0xd34>
900019d0:	efffe697          	auipc	a3,0xefffe
900019d4:	6e868693          	addi	a3,a3,1768 # 800000b8 <_data+0xb8>
900019d8:	0006a783          	lw	a5,0(a3)
900019dc:	0046a803          	lw	a6,4(a3)
900019e0:	00f12423          	sw	a5,8(sp)
900019e4:	01012623          	sw	a6,12(sp)
900019e8:	00000c13          	li	s8,0
900019ec:	000c0613          	mv	a2,s8
900019f0:	000d8693          	mv	a3,s11
900019f4:	000c8513          	mv	a0,s9
900019f8:	000d8593          	mv	a1,s11
900019fc:	728020ef          	jal	ra,90004124 <__subdf3>
90001a00:	00040613          	mv	a2,s0
90001a04:	00048693          	mv	a3,s1
90001a08:	0bc020ef          	jal	ra,90003ac4 <__muldf3>
90001a0c:	00050b13          	mv	s6,a0
90001a10:	00058b93          	mv	s7,a1
90001a14:	000c8613          	mv	a2,s9
90001a18:	000d8693          	mv	a3,s11
90001a1c:	00090513          	mv	a0,s2
90001a20:	00098593          	mv	a1,s3
90001a24:	0a0020ef          	jal	ra,90003ac4 <__muldf3>
90001a28:	00050613          	mv	a2,a0
90001a2c:	00058693          	mv	a3,a1
90001a30:	000b0513          	mv	a0,s6
90001a34:	000b8593          	mv	a1,s7
90001a38:	5f5000ef          	jal	ra,9000282c <__adddf3>
90001a3c:	00050913          	mv	s2,a0
90001a40:	00058993          	mv	s3,a1
90001a44:	000c0613          	mv	a2,s8
90001a48:	000d8693          	mv	a3,s11
90001a4c:	00040513          	mv	a0,s0
90001a50:	00048593          	mv	a1,s1
90001a54:	070020ef          	jal	ra,90003ac4 <__muldf3>
90001a58:	00050613          	mv	a2,a0
90001a5c:	00058693          	mv	a3,a1
90001a60:	00050413          	mv	s0,a0
90001a64:	00058493          	mv	s1,a1
90001a68:	00090513          	mv	a0,s2
90001a6c:	00098593          	mv	a1,s3
90001a70:	5bd000ef          	jal	ra,9000282c <__adddf3>
90001a74:	409007b7          	lui	a5,0x40900
90001a78:	00050a13          	mv	s4,a0
90001a7c:	00058b13          	mv	s6,a1
90001a80:	00058b93          	mv	s7,a1
90001a84:	36f5c463          	blt	a1,a5,90001dec <__ieee754_pow+0xcc4>
90001a88:	40f587b3          	sub	a5,a1,a5
90001a8c:	00a7e7b3          	or	a5,a5,a0
90001a90:	5e079463          	bnez	a5,90002078 <__ieee754_pow+0xf50>
90001a94:	efffe797          	auipc	a5,0xefffe
90001a98:	6b478793          	addi	a5,a5,1716 # 80000148 <_data+0x148>
90001a9c:	0007a603          	lw	a2,0(a5)
90001aa0:	0047a683          	lw	a3,4(a5)
90001aa4:	00090513          	mv	a0,s2
90001aa8:	00098593          	mv	a1,s3
90001aac:	581000ef          	jal	ra,9000282c <__adddf3>
90001ab0:	00050d13          	mv	s10,a0
90001ab4:	00058d93          	mv	s11,a1
90001ab8:	00040613          	mv	a2,s0
90001abc:	00048693          	mv	a3,s1
90001ac0:	000a0513          	mv	a0,s4
90001ac4:	000b0593          	mv	a1,s6
90001ac8:	65c020ef          	jal	ra,90004124 <__subdf3>
90001acc:	00050613          	mv	a2,a0
90001ad0:	00058693          	mv	a3,a1
90001ad4:	000d0513          	mv	a0,s10
90001ad8:	000d8593          	mv	a1,s11
90001adc:	5fd010ef          	jal	ra,900038d8 <__gedf2>
90001ae0:	58a04c63          	bgtz	a0,90002078 <__ieee754_pow+0xf50>
90001ae4:	414bd793          	srai	a5,s7,0x14
90001ae8:	7ff7f793          	andi	a5,a5,2047
90001aec:	00100537          	lui	a0,0x100
90001af0:	c0278793          	addi	a5,a5,-1022
90001af4:	40f557b3          	sra	a5,a0,a5
90001af8:	017787b3          	add	a5,a5,s7
90001afc:	4147d713          	srai	a4,a5,0x14
90001b00:	7ff77713          	andi	a4,a4,2047
90001b04:	c0170713          	addi	a4,a4,-1023
90001b08:	fff50a13          	addi	s4,a0,-1 # fffff <__stack_size+0xfdfff>
90001b0c:	40ea55b3          	sra	a1,s4,a4
90001b10:	fff5c593          	not	a1,a1
90001b14:	00f5f5b3          	and	a1,a1,a5
90001b18:	0147fa33          	and	s4,a5,s4
90001b1c:	01400793          	li	a5,20
90001b20:	00aa6a33          	or	s4,s4,a0
90001b24:	40e78733          	sub	a4,a5,a4
90001b28:	00000613          	li	a2,0
90001b2c:	00058693          	mv	a3,a1
90001b30:	40ea5a33          	sra	s4,s4,a4
90001b34:	000bd463          	bgez	s7,90001b3c <__ieee754_pow+0xa14>
90001b38:	41400a33          	neg	s4,s4
90001b3c:	00040513          	mv	a0,s0
90001b40:	00048593          	mv	a1,s1
90001b44:	5e0020ef          	jal	ra,90004124 <__subdf3>
90001b48:	00050613          	mv	a2,a0
90001b4c:	00058693          	mv	a3,a1
90001b50:	00050413          	mv	s0,a0
90001b54:	00058493          	mv	s1,a1
90001b58:	00090513          	mv	a0,s2
90001b5c:	00098593          	mv	a1,s3
90001b60:	4cd000ef          	jal	ra,9000282c <__adddf3>
90001b64:	00058b13          	mv	s6,a1
90001b68:	014a1d93          	slli	s11,s4,0x14
90001b6c:	efffe717          	auipc	a4,0xefffe
90001b70:	5ec70713          	addi	a4,a4,1516 # 80000158 <_data+0x158>
90001b74:	00072603          	lw	a2,0(a4)
90001b78:	00472683          	lw	a3,4(a4)
90001b7c:	00000c13          	li	s8,0
90001b80:	000c0513          	mv	a0,s8
90001b84:	000b0593          	mv	a1,s6
90001b88:	73d010ef          	jal	ra,90003ac4 <__muldf3>
90001b8c:	000b0d13          	mv	s10,s6
90001b90:	00058b93          	mv	s7,a1
90001b94:	00050b13          	mv	s6,a0
90001b98:	00040613          	mv	a2,s0
90001b9c:	00048693          	mv	a3,s1
90001ba0:	000c0513          	mv	a0,s8
90001ba4:	000d0593          	mv	a1,s10
90001ba8:	57c020ef          	jal	ra,90004124 <__subdf3>
90001bac:	00050613          	mv	a2,a0
90001bb0:	00058693          	mv	a3,a1
90001bb4:	00090513          	mv	a0,s2
90001bb8:	00098593          	mv	a1,s3
90001bbc:	568020ef          	jal	ra,90004124 <__subdf3>
90001bc0:	efffe717          	auipc	a4,0xefffe
90001bc4:	5a070713          	addi	a4,a4,1440 # 80000160 <_data+0x160>
90001bc8:	00072603          	lw	a2,0(a4)
90001bcc:	00472683          	lw	a3,4(a4)
90001bd0:	6f5010ef          	jal	ra,90003ac4 <__muldf3>
90001bd4:	efffe717          	auipc	a4,0xefffe
90001bd8:	59470713          	addi	a4,a4,1428 # 80000168 <_data+0x168>
90001bdc:	00072603          	lw	a2,0(a4)
90001be0:	00472683          	lw	a3,4(a4)
90001be4:	00050413          	mv	s0,a0
90001be8:	00058493          	mv	s1,a1
90001bec:	000c0513          	mv	a0,s8
90001bf0:	000d0593          	mv	a1,s10
90001bf4:	6d1010ef          	jal	ra,90003ac4 <__muldf3>
90001bf8:	00050613          	mv	a2,a0
90001bfc:	00058693          	mv	a3,a1
90001c00:	00040513          	mv	a0,s0
90001c04:	00048593          	mv	a1,s1
90001c08:	425000ef          	jal	ra,9000282c <__adddf3>
90001c0c:	00050913          	mv	s2,a0
90001c10:	00058993          	mv	s3,a1
90001c14:	00050613          	mv	a2,a0
90001c18:	00058693          	mv	a3,a1
90001c1c:	000b0513          	mv	a0,s6
90001c20:	000b8593          	mv	a1,s7
90001c24:	409000ef          	jal	ra,9000282c <__adddf3>
90001c28:	000b0613          	mv	a2,s6
90001c2c:	000b8693          	mv	a3,s7
90001c30:	00050413          	mv	s0,a0
90001c34:	00058493          	mv	s1,a1
90001c38:	4ec020ef          	jal	ra,90004124 <__subdf3>
90001c3c:	00050613          	mv	a2,a0
90001c40:	00058693          	mv	a3,a1
90001c44:	00090513          	mv	a0,s2
90001c48:	00098593          	mv	a1,s3
90001c4c:	4d8020ef          	jal	ra,90004124 <__subdf3>
90001c50:	00050b13          	mv	s6,a0
90001c54:	00058b93          	mv	s7,a1
90001c58:	00040613          	mv	a2,s0
90001c5c:	00048693          	mv	a3,s1
90001c60:	00040513          	mv	a0,s0
90001c64:	00048593          	mv	a1,s1
90001c68:	65d010ef          	jal	ra,90003ac4 <__muldf3>
90001c6c:	efffe797          	auipc	a5,0xefffe
90001c70:	50478793          	addi	a5,a5,1284 # 80000170 <_data+0x170>
90001c74:	0007a603          	lw	a2,0(a5)
90001c78:	0047a683          	lw	a3,4(a5)
90001c7c:	00050913          	mv	s2,a0
90001c80:	00058993          	mv	s3,a1
90001c84:	641010ef          	jal	ra,90003ac4 <__muldf3>
90001c88:	efffe797          	auipc	a5,0xefffe
90001c8c:	4f078793          	addi	a5,a5,1264 # 80000178 <_data+0x178>
90001c90:	0007a603          	lw	a2,0(a5)
90001c94:	0047a683          	lw	a3,4(a5)
90001c98:	48c020ef          	jal	ra,90004124 <__subdf3>
90001c9c:	00090613          	mv	a2,s2
90001ca0:	00098693          	mv	a3,s3
90001ca4:	621010ef          	jal	ra,90003ac4 <__muldf3>
90001ca8:	efffe797          	auipc	a5,0xefffe
90001cac:	4d878793          	addi	a5,a5,1240 # 80000180 <_data+0x180>
90001cb0:	0007a603          	lw	a2,0(a5)
90001cb4:	0047a683          	lw	a3,4(a5)
90001cb8:	375000ef          	jal	ra,9000282c <__adddf3>
90001cbc:	00090613          	mv	a2,s2
90001cc0:	00098693          	mv	a3,s3
90001cc4:	601010ef          	jal	ra,90003ac4 <__muldf3>
90001cc8:	efffe797          	auipc	a5,0xefffe
90001ccc:	4c078793          	addi	a5,a5,1216 # 80000188 <_data+0x188>
90001cd0:	0007a603          	lw	a2,0(a5)
90001cd4:	0047a683          	lw	a3,4(a5)
90001cd8:	44c020ef          	jal	ra,90004124 <__subdf3>
90001cdc:	00090613          	mv	a2,s2
90001ce0:	00098693          	mv	a3,s3
90001ce4:	5e1010ef          	jal	ra,90003ac4 <__muldf3>
90001ce8:	efffe797          	auipc	a5,0xefffe
90001cec:	4a878793          	addi	a5,a5,1192 # 80000190 <_data+0x190>
90001cf0:	0007a603          	lw	a2,0(a5)
90001cf4:	0047a683          	lw	a3,4(a5)
90001cf8:	335000ef          	jal	ra,9000282c <__adddf3>
90001cfc:	00090613          	mv	a2,s2
90001d00:	00098693          	mv	a3,s3
90001d04:	5c1010ef          	jal	ra,90003ac4 <__muldf3>
90001d08:	00050613          	mv	a2,a0
90001d0c:	00058693          	mv	a3,a1
90001d10:	00040513          	mv	a0,s0
90001d14:	00048593          	mv	a1,s1
90001d18:	40c020ef          	jal	ra,90004124 <__subdf3>
90001d1c:	00050613          	mv	a2,a0
90001d20:	00058693          	mv	a3,a1
90001d24:	00050c13          	mv	s8,a0
90001d28:	00058c93          	mv	s9,a1
90001d2c:	00040513          	mv	a0,s0
90001d30:	00048593          	mv	a1,s1
90001d34:	591010ef          	jal	ra,90003ac4 <__muldf3>
90001d38:	efffe697          	auipc	a3,0xefffe
90001d3c:	46068693          	addi	a3,a3,1120 # 80000198 <_data+0x198>
90001d40:	0006a603          	lw	a2,0(a3)
90001d44:	0046a683          	lw	a3,4(a3)
90001d48:	00050913          	mv	s2,a0
90001d4c:	00058993          	mv	s3,a1
90001d50:	000c0513          	mv	a0,s8
90001d54:	000c8593          	mv	a1,s9
90001d58:	3cc020ef          	jal	ra,90004124 <__subdf3>
90001d5c:	00050613          	mv	a2,a0
90001d60:	00058693          	mv	a3,a1
90001d64:	00090513          	mv	a0,s2
90001d68:	00098593          	mv	a1,s3
90001d6c:	344010ef          	jal	ra,900030b0 <__divdf3>
90001d70:	00050913          	mv	s2,a0
90001d74:	00058993          	mv	s3,a1
90001d78:	000b0613          	mv	a2,s6
90001d7c:	000b8693          	mv	a3,s7
90001d80:	00040513          	mv	a0,s0
90001d84:	00048593          	mv	a1,s1
90001d88:	53d010ef          	jal	ra,90003ac4 <__muldf3>
90001d8c:	000b0613          	mv	a2,s6
90001d90:	000b8693          	mv	a3,s7
90001d94:	299000ef          	jal	ra,9000282c <__adddf3>
90001d98:	00050613          	mv	a2,a0
90001d9c:	00058693          	mv	a3,a1
90001da0:	00090513          	mv	a0,s2
90001da4:	00098593          	mv	a1,s3
90001da8:	37c020ef          	jal	ra,90004124 <__subdf3>
90001dac:	00040613          	mv	a2,s0
90001db0:	00048693          	mv	a3,s1
90001db4:	370020ef          	jal	ra,90004124 <__subdf3>
90001db8:	00058693          	mv	a3,a1
90001dbc:	00050613          	mv	a2,a0
90001dc0:	004aa583          	lw	a1,4(s5)
90001dc4:	000aa503          	lw	a0,0(s5)
90001dc8:	35c020ef          	jal	ra,90004124 <__subdf3>
90001dcc:	00bd87b3          	add	a5,s11,a1
90001dd0:	4147d693          	srai	a3,a5,0x14
90001dd4:	32d05063          	blez	a3,900020f4 <__ieee754_pow+0xfcc>
90001dd8:	00078593          	mv	a1,a5
90001ddc:	00812603          	lw	a2,8(sp)
90001de0:	00c12683          	lw	a3,12(sp)
90001de4:	4e1010ef          	jal	ra,90003ac4 <__muldf3>
90001de8:	bb8ff06f          	j	900011a0 <__ieee754_pow+0x78>
90001dec:	00159793          	slli	a5,a1,0x1
90001df0:	4090d6b7          	lui	a3,0x4090d
90001df4:	0017d793          	srli	a5,a5,0x1
90001df8:	bff68693          	addi	a3,a3,-1025 # 4090cbff <__stack_size+0x4090abff>
90001dfc:	26f6d263          	bge	a3,a5,90002060 <__ieee754_pow+0xf38>
90001e00:	3f6f37b7          	lui	a5,0x3f6f3
90001e04:	40078793          	addi	a5,a5,1024 # 3f6f3400 <__stack_size+0x3f6f1400>
90001e08:	00f587b3          	add	a5,a1,a5
90001e0c:	00a7e7b3          	or	a5,a5,a0
90001e10:	02079063          	bnez	a5,90001e30 <__ieee754_pow+0xd08>
90001e14:	00040613          	mv	a2,s0
90001e18:	00048693          	mv	a3,s1
90001e1c:	308020ef          	jal	ra,90004124 <__subdf3>
90001e20:	00090613          	mv	a2,s2
90001e24:	00098693          	mv	a3,s3
90001e28:	2b1010ef          	jal	ra,900038d8 <__gedf2>
90001e2c:	ca054ce3          	bltz	a0,90001ae4 <__ieee754_pow+0x9bc>
90001e30:	efffe417          	auipc	s0,0xefffe
90001e34:	32040413          	addi	s0,s0,800 # 80000150 <_data+0x150>
90001e38:	00042603          	lw	a2,0(s0)
90001e3c:	00442683          	lw	a3,4(s0)
90001e40:	00812503          	lw	a0,8(sp)
90001e44:	00c12583          	lw	a1,12(sp)
90001e48:	47d010ef          	jal	ra,90003ac4 <__muldf3>
90001e4c:	00042603          	lw	a2,0(s0)
90001e50:	00442683          	lw	a3,4(s0)
90001e54:	471010ef          	jal	ra,90003ac4 <__muldf3>
90001e58:	b48ff06f          	j	900011a0 <__ieee754_pow+0x78>
90001e5c:	000aa783          	lw	a5,0(s5)
90001e60:	004aa803          	lw	a6,4(s5)
90001e64:	00f12423          	sw	a5,8(sp)
90001e68:	01012623          	sw	a6,12(sp)
90001e6c:	b7dff06f          	j	900019e8 <__ieee754_pow+0x8c0>
90001e70:	d60dd663          	bgez	s11,900013dc <__ieee754_pow+0x2b4>
90001e74:	800005b7          	lui	a1,0x80000
90001e78:	00000513          	li	a0,0
90001e7c:	01b5c5b3          	xor	a1,a1,s11
90001e80:	b20ff06f          	j	900011a0 <__ieee754_pow+0x78>
90001e84:	efffea97          	auipc	s5,0xefffe
90001e88:	1e4a8a93          	addi	s5,s5,484 # 80000068 <_data+0x68>
90001e8c:	e68ff06f          	j	900014f4 <__ieee754_pow+0x3cc>
90001e90:	3ff006b7          	lui	a3,0x3ff00
90001e94:	ffe68613          	addi	a2,a3,-2 # 3feffffe <__stack_size+0x3fefdffe>
90001e98:	ca865663          	bge	a2,s0,90001344 <__ieee754_pow+0x21c>
90001e9c:	d686cc63          	blt	a3,s0,90001414 <__ieee754_pow+0x2ec>
90001ea0:	efffea97          	auipc	s5,0xefffe
90001ea4:	1c8a8a93          	addi	s5,s5,456 # 80000068 <_data+0x68>
90001ea8:	000aa603          	lw	a2,0(s5)
90001eac:	004aa683          	lw	a3,4(s5)
90001eb0:	01c12823          	sw	t3,16(sp)
90001eb4:	270020ef          	jal	ra,90004124 <__subdf3>
90001eb8:	efffe697          	auipc	a3,0xefffe
90001ebc:	21068693          	addi	a3,a3,528 # 800000c8 <_data+0xc8>
90001ec0:	0006a603          	lw	a2,0(a3)
90001ec4:	0046a683          	lw	a3,4(a3)
90001ec8:	00050413          	mv	s0,a0
90001ecc:	00058493          	mv	s1,a1
90001ed0:	3f5010ef          	jal	ra,90003ac4 <__muldf3>
90001ed4:	efffe697          	auipc	a3,0xefffe
90001ed8:	1fc68693          	addi	a3,a3,508 # 800000d0 <_data+0xd0>
90001edc:	0006a603          	lw	a2,0(a3)
90001ee0:	0046a683          	lw	a3,4(a3)
90001ee4:	00050913          	mv	s2,a0
90001ee8:	00058993          	mv	s3,a1
90001eec:	00040513          	mv	a0,s0
90001ef0:	00048593          	mv	a1,s1
90001ef4:	3d1010ef          	jal	ra,90003ac4 <__muldf3>
90001ef8:	efffe697          	auipc	a3,0xefffe
90001efc:	1e068693          	addi	a3,a3,480 # 800000d8 <_data+0xd8>
90001f00:	0006a603          	lw	a2,0(a3)
90001f04:	0046a683          	lw	a3,4(a3)
90001f08:	00a12423          	sw	a0,8(sp)
90001f0c:	00b12623          	sw	a1,12(sp)
90001f10:	00040513          	mv	a0,s0
90001f14:	00048593          	mv	a1,s1
90001f18:	3ad010ef          	jal	ra,90003ac4 <__muldf3>
90001f1c:	00058693          	mv	a3,a1
90001f20:	efffe597          	auipc	a1,0xefffe
90001f24:	1c058593          	addi	a1,a1,448 # 800000e0 <_data+0xe0>
90001f28:	00050613          	mv	a2,a0
90001f2c:	0005a503          	lw	a0,0(a1)
90001f30:	0045a583          	lw	a1,4(a1)
90001f34:	1f0020ef          	jal	ra,90004124 <__subdf3>
90001f38:	00040613          	mv	a2,s0
90001f3c:	00048693          	mv	a3,s1
90001f40:	385010ef          	jal	ra,90003ac4 <__muldf3>
90001f44:	00058693          	mv	a3,a1
90001f48:	efffe597          	auipc	a1,0xefffe
90001f4c:	13058593          	addi	a1,a1,304 # 80000078 <_data+0x78>
90001f50:	00050613          	mv	a2,a0
90001f54:	0005a503          	lw	a0,0(a1)
90001f58:	0045a583          	lw	a1,4(a1)
90001f5c:	1c8020ef          	jal	ra,90004124 <__subdf3>
90001f60:	00050b13          	mv	s6,a0
90001f64:	00058b93          	mv	s7,a1
90001f68:	00040613          	mv	a2,s0
90001f6c:	00048693          	mv	a3,s1
90001f70:	00040513          	mv	a0,s0
90001f74:	00048593          	mv	a1,s1
90001f78:	34d010ef          	jal	ra,90003ac4 <__muldf3>
90001f7c:	00050613          	mv	a2,a0
90001f80:	00058693          	mv	a3,a1
90001f84:	000b0513          	mv	a0,s6
90001f88:	000b8593          	mv	a1,s7
90001f8c:	339010ef          	jal	ra,90003ac4 <__muldf3>
90001f90:	efffe697          	auipc	a3,0xefffe
90001f94:	15868693          	addi	a3,a3,344 # 800000e8 <_data+0xe8>
90001f98:	0006a603          	lw	a2,0(a3)
90001f9c:	0046a683          	lw	a3,4(a3)
90001fa0:	325010ef          	jal	ra,90003ac4 <__muldf3>
90001fa4:	00812703          	lw	a4,8(sp)
90001fa8:	00c12783          	lw	a5,12(sp)
90001fac:	00050613          	mv	a2,a0
90001fb0:	00058693          	mv	a3,a1
90001fb4:	00070513          	mv	a0,a4
90001fb8:	00078593          	mv	a1,a5
90001fbc:	168020ef          	jal	ra,90004124 <__subdf3>
90001fc0:	00050613          	mv	a2,a0
90001fc4:	00058693          	mv	a3,a1
90001fc8:	00050b13          	mv	s6,a0
90001fcc:	00058b93          	mv	s7,a1
90001fd0:	00090513          	mv	a0,s2
90001fd4:	00098593          	mv	a1,s3
90001fd8:	055000ef          	jal	ra,9000282c <__adddf3>
90001fdc:	00000613          	li	a2,0
90001fe0:	00098693          	mv	a3,s3
90001fe4:	00060513          	mv	a0,a2
90001fe8:	00060413          	mv	s0,a2
90001fec:	00090613          	mv	a2,s2
90001ff0:	00058493          	mv	s1,a1
90001ff4:	130020ef          	jal	ra,90004124 <__subdf3>
90001ff8:	00050613          	mv	a2,a0
90001ffc:	00058693          	mv	a3,a1
90002000:	000b0513          	mv	a0,s6
90002004:	000b8593          	mv	a1,s7
90002008:	11c020ef          	jal	ra,90004124 <__subdf3>
9000200c:	00050913          	mv	s2,a0
90002010:	00058993          	mv	s3,a1
90002014:	01012e03          	lw	t3,16(sp)
90002018:	9adff06f          	j	900019c4 <__ieee754_pow+0x89c>
9000201c:	00098613          	mv	a2,s3
90002020:	00098513          	mv	a0,s3
90002024:	00048693          	mv	a3,s1
90002028:	00048593          	mv	a1,s1
9000202c:	299010ef          	jal	ra,90003ac4 <__muldf3>
90002030:	970ff06f          	j	900011a0 <__ieee754_pow+0x78>
90002034:	b20c9a63          	bnez	s9,90001368 <__ieee754_pow+0x240>
90002038:	40d606b3          	sub	a3,a2,a3
9000203c:	40d95633          	sra	a2,s2,a3
90002040:	00d616b3          	sll	a3,a2,a3
90002044:	000c8d13          	mv	s10,s9
90002048:	01268463          	beq	a3,s2,90002050 <__ieee754_pow+0xf28>
9000204c:	9c4ff06f          	j	90001210 <__ieee754_pow+0xe8>
90002050:	00167613          	andi	a2,a2,1
90002054:	00200313          	li	t1,2
90002058:	40c30d33          	sub	s10,t1,a2
9000205c:	9b4ff06f          	j	90001210 <__ieee754_pow+0xe8>
90002060:	3fe00737          	lui	a4,0x3fe00
90002064:	00000d93          	li	s11,0
90002068:	00000a13          	li	s4,0
9000206c:	b0f750e3          	bge	a4,a5,90001b6c <__ieee754_pow+0xa44>
90002070:	4147d793          	srai	a5,a5,0x14
90002074:	a79ff06f          	j	90001aec <__ieee754_pow+0x9c4>
90002078:	efffe417          	auipc	s0,0xefffe
9000207c:	04840413          	addi	s0,s0,72 # 800000c0 <_data+0xc0>
90002080:	db9ff06f          	j	90001e38 <__ieee754_pow+0xd10>
90002084:	00100793          	li	a5,1
90002088:	00fd0463          	beq	s10,a5,90002090 <__ieee754_pow+0xf68>
9000208c:	914ff06f          	j	900011a0 <__ieee754_pow+0x78>
90002090:	800007b7          	lui	a5,0x80000
90002094:	00b7c5b3          	xor	a1,a5,a1
90002098:	908ff06f          	j	900011a0 <__ieee754_pow+0x78>
9000209c:	efffe697          	auipc	a3,0xefffe
900020a0:	00468693          	addi	a3,a3,4 # 800000a0 <_data+0xa0>
900020a4:	0006a783          	lw	a5,0(a3)
900020a8:	0046a803          	lw	a6,4(a3)
900020ac:	efffe697          	auipc	a3,0xefffe
900020b0:	ffc68693          	addi	a3,a3,-4 # 800000a8 <_data+0xa8>
900020b4:	00f12823          	sw	a5,16(sp)
900020b8:	01012a23          	sw	a6,20(sp)
900020bc:	0006a783          	lw	a5,0(a3)
900020c0:	0046a803          	lw	a6,4(a3)
900020c4:	efffe697          	auipc	a3,0xefffe
900020c8:	fec68693          	addi	a3,a3,-20 # 800000b0 <_data+0xb0>
900020cc:	02f12c23          	sw	a5,56(sp)
900020d0:	03012e23          	sw	a6,60(sp)
900020d4:	0006a783          	lw	a5,0(a3)
900020d8:	0046a803          	lw	a6,4(a3)
900020dc:	000409b7          	lui	s3,0x40
900020e0:	00f12423          	sw	a5,8(sp)
900020e4:	01012623          	sw	a6,12(sp)
900020e8:	efffea97          	auipc	s5,0xefffe
900020ec:	f80a8a93          	addi	s5,s5,-128 # 80000068 <_data+0x68>
900020f0:	c28ff06f          	j	90001518 <__ieee754_pow+0x3f0>
900020f4:	000a0613          	mv	a2,s4
900020f8:	51c000ef          	jal	ra,90002614 <scalbn>
900020fc:	ce1ff06f          	j	90001ddc <__ieee754_pow+0xcb4>

90002100 <__ieee754_sqrt>:
90002100:	ff010113          	addi	sp,sp,-16
90002104:	7ff00737          	lui	a4,0x7ff00
90002108:	00812423          	sw	s0,8(sp)
9000210c:	00912223          	sw	s1,4(sp)
90002110:	00112623          	sw	ra,12(sp)
90002114:	00b77833          	and	a6,a4,a1
90002118:	00058413          	mv	s0,a1
9000211c:	00050493          	mv	s1,a0
90002120:	20e80a63          	beq	a6,a4,90002334 <__ieee754_sqrt+0x234>
90002124:	00058793          	mv	a5,a1
90002128:	00050693          	mv	a3,a0
9000212c:	16b05663          	blez	a1,90002298 <__ieee754_sqrt+0x198>
90002130:	4145de13          	srai	t3,a1,0x14
90002134:	260e0063          	beqz	t3,90002394 <__ieee754_sqrt+0x294>
90002138:	00100737          	lui	a4,0x100
9000213c:	fff70613          	addi	a2,a4,-1 # fffff <__stack_size+0xfdfff>
90002140:	00c7f7b3          	and	a5,a5,a2
90002144:	00e7e7b3          	or	a5,a5,a4
90002148:	c01e0e13          	addi	t3,t3,-1023
9000214c:	00179713          	slli	a4,a5,0x1
90002150:	001e7613          	andi	a2,t3,1
90002154:	01f6d793          	srli	a5,a3,0x1f
90002158:	00f707b3          	add	a5,a4,a5
9000215c:	00169713          	slli	a4,a3,0x1
90002160:	00060a63          	beqz	a2,90002174 <__ieee754_sqrt+0x74>
90002164:	01f75713          	srli	a4,a4,0x1f
90002168:	00179793          	slli	a5,a5,0x1
9000216c:	00e787b3          	add	a5,a5,a4
90002170:	00269713          	slli	a4,a3,0x2
90002174:	401e5e13          	srai	t3,t3,0x1
90002178:	01600593          	li	a1,22
9000217c:	00000e93          	li	t4,0
90002180:	00000693          	li	a3,0
90002184:	00200637          	lui	a2,0x200
90002188:	00c68533          	add	a0,a3,a2
9000218c:	01f75813          	srli	a6,a4,0x1f
90002190:	fff58593          	addi	a1,a1,-1
90002194:	00a7c863          	blt	a5,a0,900021a4 <__ieee754_sqrt+0xa4>
90002198:	40a787b3          	sub	a5,a5,a0
9000219c:	00c506b3          	add	a3,a0,a2
900021a0:	00ce8eb3          	add	t4,t4,a2
900021a4:	00179793          	slli	a5,a5,0x1
900021a8:	00f807b3          	add	a5,a6,a5
900021ac:	00171713          	slli	a4,a4,0x1
900021b0:	00165613          	srli	a2,a2,0x1
900021b4:	fc059ae3          	bnez	a1,90002188 <__ieee754_sqrt+0x88>
900021b8:	02000513          	li	a0,32
900021bc:	00000313          	li	t1,0
900021c0:	00000893          	li	a7,0
900021c4:	80000637          	lui	a2,0x80000
900021c8:	0240006f          	j	900021ec <__ieee754_sqrt+0xec>
900021cc:	14d78863          	beq	a5,a3,9000231c <__ieee754_sqrt+0x21c>
900021d0:	01f75593          	srli	a1,a4,0x1f
900021d4:	00179793          	slli	a5,a5,0x1
900021d8:	fff50513          	addi	a0,a0,-1
900021dc:	00b787b3          	add	a5,a5,a1
900021e0:	00171713          	slli	a4,a4,0x1
900021e4:	00165613          	srli	a2,a2,0x1
900021e8:	04050663          	beqz	a0,90002234 <__ieee754_sqrt+0x134>
900021ec:	011605b3          	add	a1,a2,a7
900021f0:	fcf6dee3          	bge	a3,a5,900021cc <__ieee754_sqrt+0xcc>
900021f4:	00c588b3          	add	a7,a1,a2
900021f8:	00068813          	mv	a6,a3
900021fc:	1005c863          	bltz	a1,9000230c <__ieee754_sqrt+0x20c>
90002200:	40d787b3          	sub	a5,a5,a3
90002204:	00b736b3          	sltu	a3,a4,a1
90002208:	40d787b3          	sub	a5,a5,a3
9000220c:	40b70733          	sub	a4,a4,a1
90002210:	01f75593          	srli	a1,a4,0x1f
90002214:	00179793          	slli	a5,a5,0x1
90002218:	fff50513          	addi	a0,a0,-1
9000221c:	00c30333          	add	t1,t1,a2
90002220:	00080693          	mv	a3,a6
90002224:	00b787b3          	add	a5,a5,a1
90002228:	00171713          	slli	a4,a4,0x1
9000222c:	00165613          	srli	a2,a2,0x1
90002230:	fa051ee3          	bnez	a0,900021ec <__ieee754_sqrt+0xec>
90002234:	00e7e7b3          	or	a5,a5,a4
90002238:	00135493          	srli	s1,t1,0x1
9000223c:	00078e63          	beqz	a5,90002258 <__ieee754_sqrt+0x158>
90002240:	00130493          	addi	s1,t1,1
90002244:	fff00793          	li	a5,-1
90002248:	0014d493          	srli	s1,s1,0x1
9000224c:	00f31663          	bne	t1,a5,90002258 <__ieee754_sqrt+0x158>
90002250:	001e8e93          	addi	t4,t4,1
90002254:	00000493          	li	s1,0
90002258:	401ed713          	srai	a4,t4,0x1
9000225c:	3fe00437          	lui	s0,0x3fe00
90002260:	001efe93          	andi	t4,t4,1
90002264:	00870433          	add	s0,a4,s0
90002268:	000e8663          	beqz	t4,90002274 <__ieee754_sqrt+0x174>
9000226c:	800007b7          	lui	a5,0x80000
90002270:	00f4e4b3          	or	s1,s1,a5
90002274:	014e1713          	slli	a4,t3,0x14
90002278:	00870733          	add	a4,a4,s0
9000227c:	00c12083          	lw	ra,12(sp)
90002280:	00812403          	lw	s0,8(sp)
90002284:	00048513          	mv	a0,s1
90002288:	00070593          	mv	a1,a4
9000228c:	00412483          	lw	s1,4(sp)
90002290:	01010113          	addi	sp,sp,16
90002294:	00008067          	ret
90002298:	00159713          	slli	a4,a1,0x1
9000229c:	00175713          	srli	a4,a4,0x1
900022a0:	00a76833          	or	a6,a4,a0
900022a4:	00058713          	mv	a4,a1
900022a8:	fc080ae3          	beqz	a6,9000227c <__ieee754_sqrt+0x17c>
900022ac:	0c059263          	bnez	a1,90002370 <__ieee754_sqrt+0x270>
900022b0:	00b6d593          	srli	a1,a3,0xb
900022b4:	feb78793          	addi	a5,a5,-21 # 7fffffeb <_data_lma+0xefffac83>
900022b8:	00058713          	mv	a4,a1
900022bc:	01569693          	slli	a3,a3,0x15
900022c0:	fe0588e3          	beqz	a1,900022b0 <__ieee754_sqrt+0x1b0>
900022c4:	0145d613          	srli	a2,a1,0x14
900022c8:	0c061c63          	bnez	a2,900023a0 <__ieee754_sqrt+0x2a0>
900022cc:	00000613          	li	a2,0
900022d0:	0080006f          	j	900022d8 <__ieee754_sqrt+0x1d8>
900022d4:	00050613          	mv	a2,a0
900022d8:	00171713          	slli	a4,a4,0x1
900022dc:	00b71593          	slli	a1,a4,0xb
900022e0:	00160513          	addi	a0,a2,1 # 80000001 <_data_lma+0xefffac99>
900022e4:	fe05d8e3          	bgez	a1,900022d4 <__ieee754_sqrt+0x1d4>
900022e8:	02000893          	li	a7,32
900022ec:	00068813          	mv	a6,a3
900022f0:	40a888b3          	sub	a7,a7,a0
900022f4:	00070593          	mv	a1,a4
900022f8:	00a696b3          	sll	a3,a3,a0
900022fc:	01185733          	srl	a4,a6,a7
90002300:	40c78e33          	sub	t3,a5,a2
90002304:	00b767b3          	or	a5,a4,a1
90002308:	e31ff06f          	j	90002138 <__ieee754_sqrt+0x38>
9000230c:	fff8c813          	not	a6,a7
90002310:	01f85813          	srli	a6,a6,0x1f
90002314:	01068833          	add	a6,a3,a6
90002318:	ee9ff06f          	j	90002200 <__ieee754_sqrt+0x100>
9000231c:	eab76ae3          	bltu	a4,a1,900021d0 <__ieee754_sqrt+0xd0>
90002320:	00c588b3          	add	a7,a1,a2
90002324:	fe05c4e3          	bltz	a1,9000230c <__ieee754_sqrt+0x20c>
90002328:	00078813          	mv	a6,a5
9000232c:	00000793          	li	a5,0
90002330:	eddff06f          	j	9000220c <__ieee754_sqrt+0x10c>
90002334:	00050613          	mv	a2,a0
90002338:	00058693          	mv	a3,a1
9000233c:	788010ef          	jal	ra,90003ac4 <__muldf3>
90002340:	00048613          	mv	a2,s1
90002344:	00040693          	mv	a3,s0
90002348:	4e4000ef          	jal	ra,9000282c <__adddf3>
9000234c:	00c12083          	lw	ra,12(sp)
90002350:	00812403          	lw	s0,8(sp)
90002354:	00050493          	mv	s1,a0
90002358:	00058713          	mv	a4,a1
9000235c:	00048513          	mv	a0,s1
90002360:	00070593          	mv	a1,a4
90002364:	00412483          	lw	s1,4(sp)
90002368:	01010113          	addi	sp,sp,16
9000236c:	00008067          	ret
90002370:	00050613          	mv	a2,a0
90002374:	00058693          	mv	a3,a1
90002378:	5ad010ef          	jal	ra,90004124 <__subdf3>
9000237c:	00050613          	mv	a2,a0
90002380:	00058693          	mv	a3,a1
90002384:	52d000ef          	jal	ra,900030b0 <__divdf3>
90002388:	00050493          	mv	s1,a0
9000238c:	00058713          	mv	a4,a1
90002390:	eedff06f          	j	9000227c <__ieee754_sqrt+0x17c>
90002394:	00058713          	mv	a4,a1
90002398:	00000793          	li	a5,0
9000239c:	f31ff06f          	j	900022cc <__ieee754_sqrt+0x1cc>
900023a0:	00068813          	mv	a6,a3
900023a4:	02000893          	li	a7,32
900023a8:	fff00613          	li	a2,-1
900023ac:	f51ff06f          	j	900022fc <__ieee754_sqrt+0x1fc>

900023b0 <fabs>:
900023b0:	00159593          	slli	a1,a1,0x1
900023b4:	0015d593          	srli	a1,a1,0x1
900023b8:	00008067          	ret

900023bc <finite>:
900023bc:	00159593          	slli	a1,a1,0x1
900023c0:	0015d593          	srli	a1,a1,0x1
900023c4:	80100537          	lui	a0,0x80100
900023c8:	00a58533          	add	a0,a1,a0
900023cc:	01f55513          	srli	a0,a0,0x1f
900023d0:	00008067          	ret

900023d4 <matherr>:
900023d4:	00000513          	li	a0,0
900023d8:	00008067          	ret

900023dc <nan>:
900023dc:	efffe797          	auipc	a5,0xefffe
900023e0:	dcc78793          	addi	a5,a5,-564 # 800001a8 <_data+0x1a8>
900023e4:	0007a503          	lw	a0,0(a5)
900023e8:	0047a583          	lw	a1,4(a5)
900023ec:	00008067          	ret

900023f0 <rint>:
900023f0:	4145d713          	srai	a4,a1,0x14
900023f4:	fd010113          	addi	sp,sp,-48
900023f8:	7ff77713          	andi	a4,a4,2047
900023fc:	02812423          	sw	s0,40(sp)
90002400:	02112623          	sw	ra,44(sp)
90002404:	02912223          	sw	s1,36(sp)
90002408:	03212023          	sw	s2,32(sp)
9000240c:	01312e23          	sw	s3,28(sp)
90002410:	c0170613          	addi	a2,a4,-1023
90002414:	01300893          	li	a7,19
90002418:	00058793          	mv	a5,a1
9000241c:	00050693          	mv	a3,a0
90002420:	00058e13          	mv	t3,a1
90002424:	01f5d413          	srli	s0,a1,0x1f
90002428:	16c8cc63          	blt	a7,a2,900025a0 <rint+0x1b0>
9000242c:	0c064863          	bltz	a2,900024fc <rint+0x10c>
90002430:	001005b7          	lui	a1,0x100
90002434:	fff58593          	addi	a1,a1,-1 # fffff <__stack_size+0xfdfff>
90002438:	40c5d5b3          	sra	a1,a1,a2
9000243c:	00f5f533          	and	a0,a1,a5
90002440:	00d56533          	or	a0,a0,a3
90002444:	00068893          	mv	a7,a3
90002448:	00078313          	mv	t1,a5
9000244c:	08050663          	beqz	a0,900024d8 <rint+0xe8>
90002450:	0015d593          	srli	a1,a1,0x1
90002454:	00f5f833          	and	a6,a1,a5
90002458:	00d86833          	or	a6,a6,a3
9000245c:	02080663          	beqz	a6,90002488 <rint+0x98>
90002460:	bee70693          	addi	a3,a4,-1042
90002464:	00040e37          	lui	t3,0x40
90002468:	0016b693          	seqz	a3,a3
9000246c:	fff5c593          	not	a1,a1
90002470:	80000837          	lui	a6,0x80000
90002474:	40d006b3          	neg	a3,a3
90002478:	00f5f7b3          	and	a5,a1,a5
9000247c:	40ce5633          	sra	a2,t3,a2
90002480:	00d87833          	and	a6,a6,a3
90002484:	00c7ee33          	or	t3,a5,a2
90002488:	efffe797          	auipc	a5,0xefffe
9000248c:	d2878793          	addi	a5,a5,-728 # 800001b0 <TWO52>
90002490:	00341313          	slli	t1,s0,0x3
90002494:	00678333          	add	t1,a5,t1
90002498:	00032403          	lw	s0,0(t1)
9000249c:	00432483          	lw	s1,4(t1)
900024a0:	00080613          	mv	a2,a6
900024a4:	000e0693          	mv	a3,t3
900024a8:	00040513          	mv	a0,s0
900024ac:	00048593          	mv	a1,s1
900024b0:	37c000ef          	jal	ra,9000282c <__adddf3>
900024b4:	00a12423          	sw	a0,8(sp)
900024b8:	00b12623          	sw	a1,12(sp)
900024bc:	00812503          	lw	a0,8(sp)
900024c0:	00c12583          	lw	a1,12(sp)
900024c4:	00040613          	mv	a2,s0
900024c8:	00048693          	mv	a3,s1
900024cc:	459010ef          	jal	ra,90004124 <__subdf3>
900024d0:	00050893          	mv	a7,a0
900024d4:	00058313          	mv	t1,a1
900024d8:	02c12083          	lw	ra,44(sp)
900024dc:	02812403          	lw	s0,40(sp)
900024e0:	02412483          	lw	s1,36(sp)
900024e4:	02012903          	lw	s2,32(sp)
900024e8:	01c12983          	lw	s3,28(sp)
900024ec:	00088513          	mv	a0,a7
900024f0:	00030593          	mv	a1,t1
900024f4:	03010113          	addi	sp,sp,48
900024f8:	00008067          	ret
900024fc:	800004b7          	lui	s1,0x80000
90002500:	fff4c493          	not	s1,s1
90002504:	00b4f733          	and	a4,s1,a1
90002508:	00a76733          	or	a4,a4,a0
9000250c:	00050893          	mv	a7,a0
90002510:	00058313          	mv	t1,a1
90002514:	fc0702e3          	beqz	a4,900024d8 <rint+0xe8>
90002518:	00c59793          	slli	a5,a1,0xc
9000251c:	00c7d793          	srli	a5,a5,0xc
90002520:	00a7e733          	or	a4,a5,a0
90002524:	40e007b3          	neg	a5,a4
90002528:	00e7e7b3          	or	a5,a5,a4
9000252c:	efffe697          	auipc	a3,0xefffe
90002530:	c8468693          	addi	a3,a3,-892 # 800001b0 <TWO52>
90002534:	00341713          	slli	a4,s0,0x3
90002538:	00e686b3          	add	a3,a3,a4
9000253c:	00c7d793          	srli	a5,a5,0xc
90002540:	0006a903          	lw	s2,0(a3)
90002544:	0046a983          	lw	s3,4(a3)
90002548:	fffe0737          	lui	a4,0xfffe0
9000254c:	00080337          	lui	t1,0x80
90002550:	00b77733          	and	a4,a4,a1
90002554:	0067f333          	and	t1,a5,t1
90002558:	00e36333          	or	t1,t1,a4
9000255c:	00030693          	mv	a3,t1
90002560:	00050613          	mv	a2,a0
90002564:	00098593          	mv	a1,s3
90002568:	00090513          	mv	a0,s2
9000256c:	2c0000ef          	jal	ra,9000282c <__adddf3>
90002570:	00a12423          	sw	a0,8(sp)
90002574:	00b12623          	sw	a1,12(sp)
90002578:	00812503          	lw	a0,8(sp)
9000257c:	00c12583          	lw	a1,12(sp)
90002580:	00090613          	mv	a2,s2
90002584:	00098693          	mv	a3,s3
90002588:	39d010ef          	jal	ra,90004124 <__subdf3>
9000258c:	00b4f4b3          	and	s1,s1,a1
90002590:	01f41313          	slli	t1,s0,0x1f
90002594:	0064e333          	or	t1,s1,t1
90002598:	00050893          	mv	a7,a0
9000259c:	f3dff06f          	j	900024d8 <rint+0xe8>
900025a0:	03300893          	li	a7,51
900025a4:	02c8d663          	bge	a7,a2,900025d0 <rint+0x1e0>
900025a8:	40000713          	li	a4,1024
900025ac:	00050893          	mv	a7,a0
900025b0:	00058313          	mv	t1,a1
900025b4:	f2e612e3          	bne	a2,a4,900024d8 <rint+0xe8>
900025b8:	00050613          	mv	a2,a0
900025bc:	000e0693          	mv	a3,t3
900025c0:	26c000ef          	jal	ra,9000282c <__adddf3>
900025c4:	00050893          	mv	a7,a0
900025c8:	00058313          	mv	t1,a1
900025cc:	f0dff06f          	j	900024d8 <rint+0xe8>
900025d0:	bed70713          	addi	a4,a4,-1043 # fffdfbed <_data_lma+0x6ffda885>
900025d4:	fff00613          	li	a2,-1
900025d8:	00e65633          	srl	a2,a2,a4
900025dc:	00a675b3          	and	a1,a2,a0
900025e0:	00050893          	mv	a7,a0
900025e4:	00078313          	mv	t1,a5
900025e8:	ee0588e3          	beqz	a1,900024d8 <rint+0xe8>
900025ec:	00165613          	srli	a2,a2,0x1
900025f0:	00a677b3          	and	a5,a2,a0
900025f4:	00050813          	mv	a6,a0
900025f8:	e80788e3          	beqz	a5,90002488 <rint+0x98>
900025fc:	40000837          	lui	a6,0x40000
90002600:	fff64613          	not	a2,a2
90002604:	00a676b3          	and	a3,a2,a0
90002608:	40e85733          	sra	a4,a6,a4
9000260c:	00e6e833          	or	a6,a3,a4
90002610:	e79ff06f          	j	90002488 <rint+0x98>

90002614 <scalbn>:
90002614:	ff010113          	addi	sp,sp,-16
90002618:	4145d793          	srai	a5,a1,0x14
9000261c:	00812423          	sw	s0,8(sp)
90002620:	00112623          	sw	ra,12(sp)
90002624:	00912223          	sw	s1,4(sp)
90002628:	7ff7f793          	andi	a5,a5,2047
9000262c:	00058713          	mv	a4,a1
90002630:	00050693          	mv	a3,a0
90002634:	00060413          	mv	s0,a2
90002638:	0c079263          	bnez	a5,900026fc <scalbn+0xe8>
9000263c:	00159793          	slli	a5,a1,0x1
90002640:	0017d793          	srli	a5,a5,0x1
90002644:	00a7e7b3          	or	a5,a5,a0
90002648:	08078c63          	beqz	a5,900026e0 <scalbn+0xcc>
9000264c:	efffe797          	auipc	a5,0xefffe
90002650:	b7478793          	addi	a5,a5,-1164 # 800001c0 <TWO52+0x10>
90002654:	0047a683          	lw	a3,4(a5)
90002658:	0007a603          	lw	a2,0(a5)
9000265c:	468010ef          	jal	ra,90003ac4 <__muldf3>
90002660:	ffff47b7          	lui	a5,0xffff4
90002664:	cb078793          	addi	a5,a5,-848 # ffff3cb0 <_data_lma+0x6ffee948>
90002668:	00050693          	mv	a3,a0
9000266c:	00058713          	mv	a4,a1
90002670:	16f44063          	blt	s0,a5,900027d0 <scalbn+0x1bc>
90002674:	4145d793          	srai	a5,a1,0x14
90002678:	7ff7f793          	andi	a5,a5,2047
9000267c:	00058613          	mv	a2,a1
90002680:	fca78793          	addi	a5,a5,-54
90002684:	00f407b3          	add	a5,s0,a5
90002688:	7fe00593          	li	a1,2046
9000268c:	10f5c463          	blt	a1,a5,90002794 <scalbn+0x180>
90002690:	10f04863          	bgtz	a5,900027a0 <scalbn+0x18c>
90002694:	fcb00593          	li	a1,-53
90002698:	0ab7d063          	bge	a5,a1,90002738 <scalbn+0x124>
9000269c:	0000c7b7          	lui	a5,0xc
900026a0:	35078793          	addi	a5,a5,848 # c350 <__stack_size+0xa350>
900026a4:	0e87c863          	blt	a5,s0,90002794 <scalbn+0x180>
900026a8:	efffe797          	auipc	a5,0xefffe
900026ac:	aa878793          	addi	a5,a5,-1368 # 80000150 <_data+0x150>
900026b0:	0007a403          	lw	s0,0(a5)
900026b4:	0047a483          	lw	s1,4(a5)
900026b8:	00068613          	mv	a2,a3
900026bc:	00040513          	mv	a0,s0
900026c0:	00070693          	mv	a3,a4
900026c4:	00048593          	mv	a1,s1
900026c8:	140000ef          	jal	ra,90002808 <copysign>
900026cc:	00048693          	mv	a3,s1
900026d0:	00040613          	mv	a2,s0
900026d4:	3f0010ef          	jal	ra,90003ac4 <__muldf3>
900026d8:	00050693          	mv	a3,a0
900026dc:	00058713          	mv	a4,a1
900026e0:	00c12083          	lw	ra,12(sp)
900026e4:	00812403          	lw	s0,8(sp)
900026e8:	00412483          	lw	s1,4(sp)
900026ec:	00068513          	mv	a0,a3
900026f0:	00070593          	mv	a1,a4
900026f4:	01010113          	addi	sp,sp,16
900026f8:	00008067          	ret
900026fc:	7ff00813          	li	a6,2047
90002700:	00058613          	mv	a2,a1
90002704:	f90790e3          	bne	a5,a6,90002684 <scalbn+0x70>
90002708:	00058693          	mv	a3,a1
9000270c:	00050613          	mv	a2,a0
90002710:	11c000ef          	jal	ra,9000282c <__adddf3>
90002714:	00c12083          	lw	ra,12(sp)
90002718:	00812403          	lw	s0,8(sp)
9000271c:	00050693          	mv	a3,a0
90002720:	00058713          	mv	a4,a1
90002724:	00412483          	lw	s1,4(sp)
90002728:	00068513          	mv	a0,a3
9000272c:	00070593          	mv	a1,a4
90002730:	01010113          	addi	sp,sp,16
90002734:	00008067          	ret
90002738:	80100737          	lui	a4,0x80100
9000273c:	fff70713          	addi	a4,a4,-1 # 800fffff <_data_lma+0xf00fac97>
90002740:	03678793          	addi	a5,a5,54
90002744:	00e67633          	and	a2,a2,a4
90002748:	01479793          	slli	a5,a5,0x14
9000274c:	efffe717          	auipc	a4,0xefffe
90002750:	a7c70713          	addi	a4,a4,-1412 # 800001c8 <TWO52+0x18>
90002754:	00068593          	mv	a1,a3
90002758:	00c7e7b3          	or	a5,a5,a2
9000275c:	00472683          	lw	a3,4(a4)
90002760:	00072603          	lw	a2,0(a4)
90002764:	00058513          	mv	a0,a1
90002768:	00078593          	mv	a1,a5
9000276c:	358010ef          	jal	ra,90003ac4 <__muldf3>
90002770:	00c12083          	lw	ra,12(sp)
90002774:	00812403          	lw	s0,8(sp)
90002778:	00050693          	mv	a3,a0
9000277c:	00058713          	mv	a4,a1
90002780:	00412483          	lw	s1,4(sp)
90002784:	00068513          	mv	a0,a3
90002788:	00070593          	mv	a1,a4
9000278c:	01010113          	addi	sp,sp,16
90002790:	00008067          	ret
90002794:	efffe797          	auipc	a5,0xefffe
90002798:	92c78793          	addi	a5,a5,-1748 # 800000c0 <_data+0xc0>
9000279c:	f15ff06f          	j	900026b0 <scalbn+0x9c>
900027a0:	80100737          	lui	a4,0x80100
900027a4:	00c12083          	lw	ra,12(sp)
900027a8:	00812403          	lw	s0,8(sp)
900027ac:	fff70713          	addi	a4,a4,-1 # 800fffff <_data_lma+0xf00fac97>
900027b0:	00e67733          	and	a4,a2,a4
900027b4:	01479793          	slli	a5,a5,0x14
900027b8:	00f76733          	or	a4,a4,a5
900027bc:	00412483          	lw	s1,4(sp)
900027c0:	00068513          	mv	a0,a3
900027c4:	00070593          	mv	a1,a4
900027c8:	01010113          	addi	sp,sp,16
900027cc:	00008067          	ret
900027d0:	efffe797          	auipc	a5,0xefffe
900027d4:	98078793          	addi	a5,a5,-1664 # 80000150 <_data+0x150>
900027d8:	0047a683          	lw	a3,4(a5)
900027dc:	0007a603          	lw	a2,0(a5)
900027e0:	2e4010ef          	jal	ra,90003ac4 <__muldf3>
900027e4:	00c12083          	lw	ra,12(sp)
900027e8:	00812403          	lw	s0,8(sp)
900027ec:	00050693          	mv	a3,a0
900027f0:	00058713          	mv	a4,a1
900027f4:	00412483          	lw	s1,4(sp)
900027f8:	00068513          	mv	a0,a3
900027fc:	00070593          	mv	a1,a4
90002800:	01010113          	addi	sp,sp,16
90002804:	00008067          	ret

90002808 <copysign>:
90002808:	80000737          	lui	a4,0x80000
9000280c:	fff74793          	not	a5,a4
90002810:	00d776b3          	and	a3,a4,a3
90002814:	00b7f7b3          	and	a5,a5,a1
90002818:	00050713          	mv	a4,a0
9000281c:	00d7e7b3          	or	a5,a5,a3
90002820:	00070513          	mv	a0,a4
90002824:	00078593          	mv	a1,a5
90002828:	00008067          	ret

9000282c <__adddf3>:
9000282c:	00100837          	lui	a6,0x100
90002830:	fe010113          	addi	sp,sp,-32
90002834:	fff80813          	addi	a6,a6,-1 # fffff <__stack_size+0xfdfff>
90002838:	00b87733          	and	a4,a6,a1
9000283c:	00912a23          	sw	s1,20(sp)
90002840:	00d87833          	and	a6,a6,a3
90002844:	0145d493          	srli	s1,a1,0x14
90002848:	0146d313          	srli	t1,a3,0x14
9000284c:	00371e13          	slli	t3,a4,0x3
90002850:	01312623          	sw	s3,12(sp)
90002854:	01d55713          	srli	a4,a0,0x1d
90002858:	00381813          	slli	a6,a6,0x3
9000285c:	01d65793          	srli	a5,a2,0x1d
90002860:	7ff4f493          	andi	s1,s1,2047
90002864:	7ff37313          	andi	t1,t1,2047
90002868:	00112e23          	sw	ra,28(sp)
9000286c:	00812c23          	sw	s0,24(sp)
90002870:	01212823          	sw	s2,16(sp)
90002874:	01f5d993          	srli	s3,a1,0x1f
90002878:	01f6de93          	srli	t4,a3,0x1f
9000287c:	01c76733          	or	a4,a4,t3
90002880:	00351f13          	slli	t5,a0,0x3
90002884:	0107e833          	or	a6,a5,a6
90002888:	00361f93          	slli	t6,a2,0x3
9000288c:	40648e33          	sub	t3,s1,t1
90002890:	1dd98463          	beq	s3,t4,90002a58 <__adddf3+0x22c>
90002894:	17c05863          	blez	t3,90002a04 <__adddf3+0x1d8>
90002898:	20030a63          	beqz	t1,90002aac <__adddf3+0x280>
9000289c:	008006b7          	lui	a3,0x800
900028a0:	7ff00793          	li	a5,2047
900028a4:	00d86833          	or	a6,a6,a3
900028a8:	40f48e63          	beq	s1,a5,90002cc4 <__adddf3+0x498>
900028ac:	03800793          	li	a5,56
900028b0:	3dc7ca63          	blt	a5,t3,90002c84 <__adddf3+0x458>
900028b4:	01f00793          	li	a5,31
900028b8:	55c7c663          	blt	a5,t3,90002e04 <__adddf3+0x5d8>
900028bc:	02000513          	li	a0,32
900028c0:	41c50533          	sub	a0,a0,t3
900028c4:	01cfd7b3          	srl	a5,t6,t3
900028c8:	00a816b3          	sll	a3,a6,a0
900028cc:	00af9933          	sll	s2,t6,a0
900028d0:	00f6e6b3          	or	a3,a3,a5
900028d4:	01203933          	snez	s2,s2
900028d8:	01c857b3          	srl	a5,a6,t3
900028dc:	0126e933          	or	s2,a3,s2
900028e0:	40f70733          	sub	a4,a4,a5
900028e4:	412f0933          	sub	s2,t5,s2
900028e8:	012f37b3          	sltu	a5,t5,s2
900028ec:	40f70633          	sub	a2,a4,a5
900028f0:	00861793          	slli	a5,a2,0x8
900028f4:	2a07d263          	bgez	a5,90002b98 <__adddf3+0x36c>
900028f8:	00800737          	lui	a4,0x800
900028fc:	fff70713          	addi	a4,a4,-1 # 7fffff <__stack_size+0x7fdfff>
90002900:	00e67433          	and	s0,a2,a4
90002904:	34040e63          	beqz	s0,90002c60 <__adddf3+0x434>
90002908:	00040513          	mv	a0,s0
9000290c:	12d020ef          	jal	ra,90005238 <__clzsi2>
90002910:	ff850713          	addi	a4,a0,-8 # 800ffff8 <_data_lma+0xf00fac90>
90002914:	02000793          	li	a5,32
90002918:	40e787b3          	sub	a5,a5,a4
9000291c:	00f957b3          	srl	a5,s2,a5
90002920:	00e41633          	sll	a2,s0,a4
90002924:	00c7e7b3          	or	a5,a5,a2
90002928:	00e91933          	sll	s2,s2,a4
9000292c:	30974c63          	blt	a4,s1,90002c44 <__adddf3+0x418>
90002930:	40970533          	sub	a0,a4,s1
90002934:	00150613          	addi	a2,a0,1
90002938:	01f00713          	li	a4,31
9000293c:	44c74663          	blt	a4,a2,90002d88 <__adddf3+0x55c>
90002940:	02000713          	li	a4,32
90002944:	40c70733          	sub	a4,a4,a2
90002948:	00c956b3          	srl	a3,s2,a2
9000294c:	00e91933          	sll	s2,s2,a4
90002950:	00e79733          	sll	a4,a5,a4
90002954:	00d76733          	or	a4,a4,a3
90002958:	01203933          	snez	s2,s2
9000295c:	01276933          	or	s2,a4,s2
90002960:	00c7d633          	srl	a2,a5,a2
90002964:	00000493          	li	s1,0
90002968:	00797793          	andi	a5,s2,7
9000296c:	02078063          	beqz	a5,9000298c <__adddf3+0x160>
90002970:	00f97713          	andi	a4,s2,15
90002974:	00400793          	li	a5,4
90002978:	00f70a63          	beq	a4,a5,9000298c <__adddf3+0x160>
9000297c:	00490713          	addi	a4,s2,4
90002980:	01273933          	sltu	s2,a4,s2
90002984:	01260633          	add	a2,a2,s2
90002988:	00070913          	mv	s2,a4
9000298c:	00861793          	slli	a5,a2,0x8
90002990:	2007d863          	bgez	a5,90002ba0 <__adddf3+0x374>
90002994:	00148513          	addi	a0,s1,1 # 80000001 <_data_lma+0xefffac99>
90002998:	7ff00793          	li	a5,2047
9000299c:	00098593          	mv	a1,s3
900029a0:	24f50c63          	beq	a0,a5,90002bf8 <__adddf3+0x3cc>
900029a4:	ff8007b7          	lui	a5,0xff800
900029a8:	fff78793          	addi	a5,a5,-1 # ff7fffff <_data_lma+0x6f7fac97>
900029ac:	00f677b3          	and	a5,a2,a5
900029b0:	01d79893          	slli	a7,a5,0x1d
900029b4:	00395913          	srli	s2,s2,0x3
900029b8:	00979793          	slli	a5,a5,0x9
900029bc:	0128e8b3          	or	a7,a7,s2
900029c0:	00c7d793          	srli	a5,a5,0xc
900029c4:	7ff57513          	andi	a0,a0,2047
900029c8:	00c79693          	slli	a3,a5,0xc
900029cc:	01451513          	slli	a0,a0,0x14
900029d0:	01c12083          	lw	ra,28(sp)
900029d4:	01812403          	lw	s0,24(sp)
900029d8:	00c6d693          	srli	a3,a3,0xc
900029dc:	01f59593          	slli	a1,a1,0x1f
900029e0:	00a6e6b3          	or	a3,a3,a0
900029e4:	00b6e6b3          	or	a3,a3,a1
900029e8:	01412483          	lw	s1,20(sp)
900029ec:	01012903          	lw	s2,16(sp)
900029f0:	00c12983          	lw	s3,12(sp)
900029f4:	00088513          	mv	a0,a7
900029f8:	00068593          	mv	a1,a3
900029fc:	02010113          	addi	sp,sp,32
90002a00:	00008067          	ret
90002a04:	0c0e1463          	bnez	t3,90002acc <__adddf3+0x2a0>
90002a08:	00148313          	addi	t1,s1,1
90002a0c:	7fe37313          	andi	t1,t1,2046
90002a10:	28031063          	bnez	t1,90002c90 <__adddf3+0x464>
90002a14:	01e767b3          	or	a5,a4,t5
90002a18:	01f868b3          	or	a7,a6,t6
90002a1c:	1e049663          	bnez	s1,90002c08 <__adddf3+0x3dc>
90002a20:	4c078063          	beqz	a5,90002ee0 <__adddf3+0x6b4>
90002a24:	50088863          	beqz	a7,90002f34 <__adddf3+0x708>
90002a28:	41ff0933          	sub	s2,t5,t6
90002a2c:	410707b3          	sub	a5,a4,a6
90002a30:	012f3633          	sltu	a2,t5,s2
90002a34:	40c78633          	sub	a2,a5,a2
90002a38:	00861793          	slli	a5,a2,0x8
90002a3c:	5a07d463          	bgez	a5,90002fe4 <__adddf3+0x7b8>
90002a40:	41ef8933          	sub	s2,t6,t5
90002a44:	40e807b3          	sub	a5,a6,a4
90002a48:	012fb633          	sltu	a2,t6,s2
90002a4c:	40c78633          	sub	a2,a5,a2
90002a50:	000e8993          	mv	s3,t4
90002a54:	f15ff06f          	j	90002968 <__adddf3+0x13c>
90002a58:	0fc05a63          	blez	t3,90002b4c <__adddf3+0x320>
90002a5c:	0c030863          	beqz	t1,90002b2c <__adddf3+0x300>
90002a60:	008006b7          	lui	a3,0x800
90002a64:	7ff00793          	li	a5,2047
90002a68:	00d86833          	or	a6,a6,a3
90002a6c:	44f48e63          	beq	s1,a5,90002ec8 <__adddf3+0x69c>
90002a70:	03800793          	li	a5,56
90002a74:	15c7cc63          	blt	a5,t3,90002bcc <__adddf3+0x3a0>
90002a78:	01f00793          	li	a5,31
90002a7c:	3fc7da63          	bge	a5,t3,90002e70 <__adddf3+0x644>
90002a80:	fe0e0913          	addi	s2,t3,-32 # 3ffe0 <__stack_size+0x3dfe0>
90002a84:	02000793          	li	a5,32
90002a88:	012856b3          	srl	a3,a6,s2
90002a8c:	00fe0a63          	beq	t3,a5,90002aa0 <__adddf3+0x274>
90002a90:	04000913          	li	s2,64
90002a94:	41c90933          	sub	s2,s2,t3
90002a98:	01281933          	sll	s2,a6,s2
90002a9c:	012fefb3          	or	t6,t6,s2
90002aa0:	01f03933          	snez	s2,t6
90002aa4:	00d96933          	or	s2,s2,a3
90002aa8:	12c0006f          	j	90002bd4 <__adddf3+0x3a8>
90002aac:	01f867b3          	or	a5,a6,t6
90002ab0:	22078663          	beqz	a5,90002cdc <__adddf3+0x4b0>
90002ab4:	fffe0793          	addi	a5,t3,-1
90002ab8:	44078463          	beqz	a5,90002f00 <__adddf3+0x6d4>
90002abc:	7ff00693          	li	a3,2047
90002ac0:	20de0263          	beq	t3,a3,90002cc4 <__adddf3+0x498>
90002ac4:	00078e13          	mv	t3,a5
90002ac8:	de5ff06f          	j	900028ac <__adddf3+0x80>
90002acc:	409305b3          	sub	a1,t1,s1
90002ad0:	28049663          	bnez	s1,90002d5c <__adddf3+0x530>
90002ad4:	01e767b3          	or	a5,a4,t5
90002ad8:	3c078263          	beqz	a5,90002e9c <__adddf3+0x670>
90002adc:	fff58793          	addi	a5,a1,-1
90002ae0:	50078c63          	beqz	a5,90002ff8 <__adddf3+0x7cc>
90002ae4:	7ff00693          	li	a3,2047
90002ae8:	28d58263          	beq	a1,a3,90002d6c <__adddf3+0x540>
90002aec:	00078593          	mv	a1,a5
90002af0:	03800793          	li	a5,56
90002af4:	32b7ce63          	blt	a5,a1,90002e30 <__adddf3+0x604>
90002af8:	01f00793          	li	a5,31
90002afc:	4ab7c263          	blt	a5,a1,90002fa0 <__adddf3+0x774>
90002b00:	02000793          	li	a5,32
90002b04:	40b787b3          	sub	a5,a5,a1
90002b08:	00f71933          	sll	s2,a4,a5
90002b0c:	00bf56b3          	srl	a3,t5,a1
90002b10:	00ff17b3          	sll	a5,t5,a5
90002b14:	00d96933          	or	s2,s2,a3
90002b18:	00f037b3          	snez	a5,a5
90002b1c:	00b75733          	srl	a4,a4,a1
90002b20:	00f96933          	or	s2,s2,a5
90002b24:	40e80833          	sub	a6,a6,a4
90002b28:	3100006f          	j	90002e38 <__adddf3+0x60c>
90002b2c:	01f867b3          	or	a5,a6,t6
90002b30:	3e078463          	beqz	a5,90002f18 <__adddf3+0x6ec>
90002b34:	fffe0793          	addi	a5,t3,-1
90002b38:	28078263          	beqz	a5,90002dbc <__adddf3+0x590>
90002b3c:	7ff00693          	li	a3,2047
90002b40:	38de0463          	beq	t3,a3,90002ec8 <__adddf3+0x69c>
90002b44:	00078e13          	mv	t3,a5
90002b48:	f29ff06f          	j	90002a70 <__adddf3+0x244>
90002b4c:	1a0e1663          	bnez	t3,90002cf8 <__adddf3+0x4cc>
90002b50:	00148693          	addi	a3,s1,1
90002b54:	7fe6f793          	andi	a5,a3,2046
90002b58:	3e079a63          	bnez	a5,90002f4c <__adddf3+0x720>
90002b5c:	01e767b3          	or	a5,a4,t5
90002b60:	34049e63          	bnez	s1,90002ebc <__adddf3+0x690>
90002b64:	4a078863          	beqz	a5,90003014 <__adddf3+0x7e8>
90002b68:	01f867b3          	or	a5,a6,t6
90002b6c:	3c078463          	beqz	a5,90002f34 <__adddf3+0x708>
90002b70:	01ff0933          	add	s2,t5,t6
90002b74:	010707b3          	add	a5,a4,a6
90002b78:	01e93f33          	sltu	t5,s2,t5
90002b7c:	01e78633          	add	a2,a5,t5
90002b80:	00861793          	slli	a5,a2,0x8
90002b84:	0007da63          	bgez	a5,90002b98 <__adddf3+0x36c>
90002b88:	ff8007b7          	lui	a5,0xff800
90002b8c:	fff78793          	addi	a5,a5,-1 # ff7fffff <_data_lma+0x6f7fac97>
90002b90:	00f67633          	and	a2,a2,a5
90002b94:	00100493          	li	s1,1
90002b98:	00797793          	andi	a5,s2,7
90002b9c:	dc079ae3          	bnez	a5,90002970 <__adddf3+0x144>
90002ba0:	01d61793          	slli	a5,a2,0x1d
90002ba4:	00395893          	srli	a7,s2,0x3
90002ba8:	00f8e8b3          	or	a7,a7,a5
90002bac:	00365793          	srli	a5,a2,0x3
90002bb0:	7ff00713          	li	a4,2047
90002bb4:	06e48a63          	beq	s1,a4,90002c28 <__adddf3+0x3fc>
90002bb8:	00c79793          	slli	a5,a5,0xc
90002bbc:	00c7d793          	srli	a5,a5,0xc
90002bc0:	7ff4f513          	andi	a0,s1,2047
90002bc4:	00098593          	mv	a1,s3
90002bc8:	e01ff06f          	j	900029c8 <__adddf3+0x19c>
90002bcc:	01f86933          	or	s2,a6,t6
90002bd0:	01203933          	snez	s2,s2
90002bd4:	01e90933          	add	s2,s2,t5
90002bd8:	01e937b3          	sltu	a5,s2,t5
90002bdc:	00e78633          	add	a2,a5,a4
90002be0:	00861793          	slli	a5,a2,0x8
90002be4:	fa07dae3          	bgez	a5,90002b98 <__adddf3+0x36c>
90002be8:	00148493          	addi	s1,s1,1
90002bec:	7ff00793          	li	a5,2047
90002bf0:	1ef49663          	bne	s1,a5,90002ddc <__adddf3+0x5b0>
90002bf4:	00098593          	mv	a1,s3
90002bf8:	7ff00513          	li	a0,2047
90002bfc:	00000793          	li	a5,0
90002c00:	00000893          	li	a7,0
90002c04:	dc5ff06f          	j	900029c8 <__adddf3+0x19c>
90002c08:	0a079c63          	bnez	a5,90002cc0 <__adddf3+0x494>
90002c0c:	46088463          	beqz	a7,90003074 <__adddf3+0x848>
90002c10:	00361693          	slli	a3,a2,0x3
90002c14:	01d81793          	slli	a5,a6,0x1d
90002c18:	0036d693          	srli	a3,a3,0x3
90002c1c:	00d7e8b3          	or	a7,a5,a3
90002c20:	000e8993          	mv	s3,t4
90002c24:	00385793          	srli	a5,a6,0x3
90002c28:	00f8e7b3          	or	a5,a7,a5
90002c2c:	fc0784e3          	beqz	a5,90002bf4 <__adddf3+0x3c8>
90002c30:	00000593          	li	a1,0
90002c34:	7ff00513          	li	a0,2047
90002c38:	000807b7          	lui	a5,0x80
90002c3c:	00000893          	li	a7,0
90002c40:	d89ff06f          	j	900029c8 <__adddf3+0x19c>
90002c44:	ff800637          	lui	a2,0xff800
90002c48:	fff60613          	addi	a2,a2,-1 # ff7fffff <_data_lma+0x6f7fac97>
90002c4c:	00c7f633          	and	a2,a5,a2
90002c50:	00797793          	andi	a5,s2,7
90002c54:	40e484b3          	sub	s1,s1,a4
90002c58:	d0079ce3          	bnez	a5,90002970 <__adddf3+0x144>
90002c5c:	f45ff06f          	j	90002ba0 <__adddf3+0x374>
90002c60:	00090513          	mv	a0,s2
90002c64:	5d4020ef          	jal	ra,90005238 <__clzsi2>
90002c68:	01850713          	addi	a4,a0,24
90002c6c:	01f00793          	li	a5,31
90002c70:	cae7d2e3          	bge	a5,a4,90002914 <__adddf3+0xe8>
90002c74:	ff850613          	addi	a2,a0,-8
90002c78:	00c917b3          	sll	a5,s2,a2
90002c7c:	00000913          	li	s2,0
90002c80:	cadff06f          	j	9000292c <__adddf3+0x100>
90002c84:	01f86933          	or	s2,a6,t6
90002c88:	01203933          	snez	s2,s2
90002c8c:	c59ff06f          	j	900028e4 <__adddf3+0xb8>
90002c90:	41ff0933          	sub	s2,t5,t6
90002c94:	41070633          	sub	a2,a4,a6
90002c98:	012f3433          	sltu	s0,t5,s2
90002c9c:	40860433          	sub	s0,a2,s0
90002ca0:	00841793          	slli	a5,s0,0x8
90002ca4:	2c07cc63          	bltz	a5,90002f7c <__adddf3+0x750>
90002ca8:	008968b3          	or	a7,s2,s0
90002cac:	c4089ce3          	bnez	a7,90002904 <__adddf3+0xd8>
90002cb0:	00000793          	li	a5,0
90002cb4:	00000993          	li	s3,0
90002cb8:	00000493          	li	s1,0
90002cbc:	efdff06f          	j	90002bb8 <__adddf3+0x38c>
90002cc0:	f60898e3          	bnez	a7,90002c30 <__adddf3+0x404>
90002cc4:	00351513          	slli	a0,a0,0x3
90002cc8:	01d71793          	slli	a5,a4,0x1d
90002ccc:	00355513          	srli	a0,a0,0x3
90002cd0:	00a7e8b3          	or	a7,a5,a0
90002cd4:	00375793          	srli	a5,a4,0x3
90002cd8:	f51ff06f          	j	90002c28 <__adddf3+0x3fc>
90002cdc:	00351513          	slli	a0,a0,0x3
90002ce0:	01d71793          	slli	a5,a4,0x1d
90002ce4:	00355513          	srli	a0,a0,0x3
90002ce8:	00a7e8b3          	or	a7,a5,a0
90002cec:	000e0493          	mv	s1,t3
90002cf0:	00375793          	srli	a5,a4,0x3
90002cf4:	ebdff06f          	j	90002bb0 <__adddf3+0x384>
90002cf8:	40930533          	sub	a0,t1,s1
90002cfc:	14048a63          	beqz	s1,90002e50 <__adddf3+0x624>
90002d00:	008006b7          	lui	a3,0x800
90002d04:	7ff00793          	li	a5,2047
90002d08:	00d76733          	or	a4,a4,a3
90002d0c:	38f30663          	beq	t1,a5,90003098 <__adddf3+0x86c>
90002d10:	03800793          	li	a5,56
90002d14:	28a7c063          	blt	a5,a0,90002f94 <__adddf3+0x768>
90002d18:	01f00793          	li	a5,31
90002d1c:	32a7c663          	blt	a5,a0,90003048 <__adddf3+0x81c>
90002d20:	02000793          	li	a5,32
90002d24:	40a787b3          	sub	a5,a5,a0
90002d28:	00f71933          	sll	s2,a4,a5
90002d2c:	00af56b3          	srl	a3,t5,a0
90002d30:	00ff17b3          	sll	a5,t5,a5
90002d34:	00d96933          	or	s2,s2,a3
90002d38:	00f037b3          	snez	a5,a5
90002d3c:	00a75733          	srl	a4,a4,a0
90002d40:	00f96933          	or	s2,s2,a5
90002d44:	00e80833          	add	a6,a6,a4
90002d48:	01f90933          	add	s2,s2,t6
90002d4c:	01f937b3          	sltu	a5,s2,t6
90002d50:	01078633          	add	a2,a5,a6
90002d54:	00030493          	mv	s1,t1
90002d58:	e89ff06f          	j	90002be0 <__adddf3+0x3b4>
90002d5c:	008006b7          	lui	a3,0x800
90002d60:	7ff00793          	li	a5,2047
90002d64:	00d76733          	or	a4,a4,a3
90002d68:	d8f314e3          	bne	t1,a5,90002af0 <__adddf3+0x2c4>
90002d6c:	00361793          	slli	a5,a2,0x3
90002d70:	0037d793          	srli	a5,a5,0x3
90002d74:	01d81893          	slli	a7,a6,0x1d
90002d78:	0117e8b3          	or	a7,a5,a7
90002d7c:	000e8993          	mv	s3,t4
90002d80:	00385793          	srli	a5,a6,0x3
90002d84:	ea5ff06f          	j	90002c28 <__adddf3+0x3fc>
90002d88:	fe150713          	addi	a4,a0,-31
90002d8c:	02000693          	li	a3,32
90002d90:	00e7d733          	srl	a4,a5,a4
90002d94:	00d60a63          	beq	a2,a3,90002da8 <__adddf3+0x57c>
90002d98:	04000693          	li	a3,64
90002d9c:	40c68633          	sub	a2,a3,a2
90002da0:	00c79633          	sll	a2,a5,a2
90002da4:	00c96933          	or	s2,s2,a2
90002da8:	01203933          	snez	s2,s2
90002dac:	00e96933          	or	s2,s2,a4
90002db0:	00000613          	li	a2,0
90002db4:	00000493          	li	s1,0
90002db8:	de1ff06f          	j	90002b98 <__adddf3+0x36c>
90002dbc:	01ff0933          	add	s2,t5,t6
90002dc0:	010707b3          	add	a5,a4,a6
90002dc4:	01e93633          	sltu	a2,s2,t5
90002dc8:	00c78633          	add	a2,a5,a2
90002dcc:	00861793          	slli	a5,a2,0x8
90002dd0:	00100493          	li	s1,1
90002dd4:	dc07d2e3          	bgez	a5,90002b98 <__adddf3+0x36c>
90002dd8:	00200493          	li	s1,2
90002ddc:	ff8007b7          	lui	a5,0xff800
90002de0:	fff78793          	addi	a5,a5,-1 # ff7fffff <_data_lma+0x6f7fac97>
90002de4:	00f677b3          	and	a5,a2,a5
90002de8:	00195713          	srli	a4,s2,0x1
90002dec:	00197913          	andi	s2,s2,1
90002df0:	01276933          	or	s2,a4,s2
90002df4:	01f79893          	slli	a7,a5,0x1f
90002df8:	0128e933          	or	s2,a7,s2
90002dfc:	0017d613          	srli	a2,a5,0x1
90002e00:	b69ff06f          	j	90002968 <__adddf3+0x13c>
90002e04:	fe0e0913          	addi	s2,t3,-32
90002e08:	02000793          	li	a5,32
90002e0c:	012856b3          	srl	a3,a6,s2
90002e10:	00fe0a63          	beq	t3,a5,90002e24 <__adddf3+0x5f8>
90002e14:	04000913          	li	s2,64
90002e18:	41c90933          	sub	s2,s2,t3
90002e1c:	01281933          	sll	s2,a6,s2
90002e20:	012fefb3          	or	t6,t6,s2
90002e24:	01f03933          	snez	s2,t6
90002e28:	00d96933          	or	s2,s2,a3
90002e2c:	ab9ff06f          	j	900028e4 <__adddf3+0xb8>
90002e30:	01e76933          	or	s2,a4,t5
90002e34:	01203933          	snez	s2,s2
90002e38:	412f8933          	sub	s2,t6,s2
90002e3c:	012fb7b3          	sltu	a5,t6,s2
90002e40:	40f80633          	sub	a2,a6,a5
90002e44:	00030493          	mv	s1,t1
90002e48:	000e8993          	mv	s3,t4
90002e4c:	aa5ff06f          	j	900028f0 <__adddf3+0xc4>
90002e50:	01e767b3          	or	a5,a4,t5
90002e54:	1c078c63          	beqz	a5,9000302c <__adddf3+0x800>
90002e58:	fff50793          	addi	a5,a0,-1
90002e5c:	22078463          	beqz	a5,90003084 <__adddf3+0x858>
90002e60:	7ff00693          	li	a3,2047
90002e64:	16d50463          	beq	a0,a3,90002fcc <__adddf3+0x7a0>
90002e68:	00078513          	mv	a0,a5
90002e6c:	ea5ff06f          	j	90002d10 <__adddf3+0x4e4>
90002e70:	02000793          	li	a5,32
90002e74:	41c787b3          	sub	a5,a5,t3
90002e78:	00f816b3          	sll	a3,a6,a5
90002e7c:	00ff9933          	sll	s2,t6,a5
90002e80:	01cfd633          	srl	a2,t6,t3
90002e84:	00c6e6b3          	or	a3,a3,a2
90002e88:	01203933          	snez	s2,s2
90002e8c:	01c857b3          	srl	a5,a6,t3
90002e90:	0126e933          	or	s2,a3,s2
90002e94:	00f70733          	add	a4,a4,a5
90002e98:	d3dff06f          	j	90002bd4 <__adddf3+0x3a8>
90002e9c:	00361793          	slli	a5,a2,0x3
90002ea0:	0037d793          	srli	a5,a5,0x3
90002ea4:	01d81893          	slli	a7,a6,0x1d
90002ea8:	0117e8b3          	or	a7,a5,a7
90002eac:	00058493          	mv	s1,a1
90002eb0:	00385793          	srli	a5,a6,0x3
90002eb4:	000e8993          	mv	s3,t4
90002eb8:	cf9ff06f          	j	90002bb0 <__adddf3+0x384>
90002ebc:	10078863          	beqz	a5,90002fcc <__adddf3+0x7a0>
90002ec0:	01f86933          	or	s2,a6,t6
90002ec4:	d60916e3          	bnez	s2,90002c30 <__adddf3+0x404>
90002ec8:	00351513          	slli	a0,a0,0x3
90002ecc:	01d71793          	slli	a5,a4,0x1d
90002ed0:	00355513          	srli	a0,a0,0x3
90002ed4:	00f568b3          	or	a7,a0,a5
90002ed8:	00375793          	srli	a5,a4,0x3
90002edc:	d4dff06f          	j	90002c28 <__adddf3+0x3fc>
90002ee0:	10088663          	beqz	a7,90002fec <__adddf3+0x7c0>
90002ee4:	00361693          	slli	a3,a2,0x3
90002ee8:	01d81793          	slli	a5,a6,0x1d
90002eec:	0036d693          	srli	a3,a3,0x3
90002ef0:	00d7e8b3          	or	a7,a5,a3
90002ef4:	000e8993          	mv	s3,t4
90002ef8:	00385793          	srli	a5,a6,0x3
90002efc:	cbdff06f          	j	90002bb8 <__adddf3+0x38c>
90002f00:	41ff0933          	sub	s2,t5,t6
90002f04:	410707b3          	sub	a5,a4,a6
90002f08:	012f3f33          	sltu	t5,t5,s2
90002f0c:	41e78633          	sub	a2,a5,t5
90002f10:	00100493          	li	s1,1
90002f14:	9ddff06f          	j	900028f0 <__adddf3+0xc4>
90002f18:	00351513          	slli	a0,a0,0x3
90002f1c:	01d71793          	slli	a5,a4,0x1d
90002f20:	00355513          	srli	a0,a0,0x3
90002f24:	00f568b3          	or	a7,a0,a5
90002f28:	000e0493          	mv	s1,t3
90002f2c:	00375793          	srli	a5,a4,0x3
90002f30:	c81ff06f          	j	90002bb0 <__adddf3+0x384>
90002f34:	00351513          	slli	a0,a0,0x3
90002f38:	01d71793          	slli	a5,a4,0x1d
90002f3c:	00355513          	srli	a0,a0,0x3
90002f40:	00a7e8b3          	or	a7,a5,a0
90002f44:	00375793          	srli	a5,a4,0x3
90002f48:	c71ff06f          	j	90002bb8 <__adddf3+0x38c>
90002f4c:	7ff00793          	li	a5,2047
90002f50:	caf682e3          	beq	a3,a5,90002bf4 <__adddf3+0x3c8>
90002f54:	01ff0933          	add	s2,t5,t6
90002f58:	01e93633          	sltu	a2,s2,t5
90002f5c:	010707b3          	add	a5,a4,a6
90002f60:	00c787b3          	add	a5,a5,a2
90002f64:	01f79893          	slli	a7,a5,0x1f
90002f68:	00195913          	srli	s2,s2,0x1
90002f6c:	0128e933          	or	s2,a7,s2
90002f70:	0017d613          	srli	a2,a5,0x1
90002f74:	00068493          	mv	s1,a3
90002f78:	c21ff06f          	j	90002b98 <__adddf3+0x36c>
90002f7c:	41ef8933          	sub	s2,t6,t5
90002f80:	40e80733          	sub	a4,a6,a4
90002f84:	012fb633          	sltu	a2,t6,s2
90002f88:	40c70433          	sub	s0,a4,a2
90002f8c:	000e8993          	mv	s3,t4
90002f90:	975ff06f          	j	90002904 <__adddf3+0xd8>
90002f94:	01e76933          	or	s2,a4,t5
90002f98:	01203933          	snez	s2,s2
90002f9c:	dadff06f          	j	90002d48 <__adddf3+0x51c>
90002fa0:	fe058793          	addi	a5,a1,-32
90002fa4:	02000693          	li	a3,32
90002fa8:	00f757b3          	srl	a5,a4,a5
90002fac:	00d58a63          	beq	a1,a3,90002fc0 <__adddf3+0x794>
90002fb0:	04000693          	li	a3,64
90002fb4:	40b685b3          	sub	a1,a3,a1
90002fb8:	00b71733          	sll	a4,a4,a1
90002fbc:	00ef6f33          	or	t5,t5,a4
90002fc0:	01e03933          	snez	s2,t5
90002fc4:	00f96933          	or	s2,s2,a5
90002fc8:	e71ff06f          	j	90002e38 <__adddf3+0x60c>
90002fcc:	00361793          	slli	a5,a2,0x3
90002fd0:	0037d793          	srli	a5,a5,0x3
90002fd4:	01d81893          	slli	a7,a6,0x1d
90002fd8:	0117e8b3          	or	a7,a5,a7
90002fdc:	00385793          	srli	a5,a6,0x3
90002fe0:	c49ff06f          	j	90002c28 <__adddf3+0x3fc>
90002fe4:	00c968b3          	or	a7,s2,a2
90002fe8:	ba0898e3          	bnez	a7,90002b98 <__adddf3+0x36c>
90002fec:	00000793          	li	a5,0
90002ff0:	00000993          	li	s3,0
90002ff4:	bc5ff06f          	j	90002bb8 <__adddf3+0x38c>
90002ff8:	41ef8933          	sub	s2,t6,t5
90002ffc:	40e807b3          	sub	a5,a6,a4
90003000:	012fb633          	sltu	a2,t6,s2
90003004:	40c78633          	sub	a2,a5,a2
90003008:	000e8993          	mv	s3,t4
9000300c:	00100493          	li	s1,1
90003010:	8e1ff06f          	j	900028f0 <__adddf3+0xc4>
90003014:	00361693          	slli	a3,a2,0x3
90003018:	01d81793          	slli	a5,a6,0x1d
9000301c:	0036d693          	srli	a3,a3,0x3
90003020:	00d7e8b3          	or	a7,a5,a3
90003024:	00385793          	srli	a5,a6,0x3
90003028:	b91ff06f          	j	90002bb8 <__adddf3+0x38c>
9000302c:	00361693          	slli	a3,a2,0x3
90003030:	01d81793          	slli	a5,a6,0x1d
90003034:	0036d693          	srli	a3,a3,0x3
90003038:	00d7e8b3          	or	a7,a5,a3
9000303c:	00050493          	mv	s1,a0
90003040:	00385793          	srli	a5,a6,0x3
90003044:	b6dff06f          	j	90002bb0 <__adddf3+0x384>
90003048:	fe050793          	addi	a5,a0,-32
9000304c:	02000693          	li	a3,32
90003050:	00f757b3          	srl	a5,a4,a5
90003054:	00d50a63          	beq	a0,a3,90003068 <__adddf3+0x83c>
90003058:	04000693          	li	a3,64
9000305c:	40a68533          	sub	a0,a3,a0
90003060:	00a71733          	sll	a4,a4,a0
90003064:	00ef6f33          	or	t5,t5,a4
90003068:	01e03933          	snez	s2,t5
9000306c:	00f96933          	or	s2,s2,a5
90003070:	cd9ff06f          	j	90002d48 <__adddf3+0x51c>
90003074:	00000593          	li	a1,0
90003078:	7ff00513          	li	a0,2047
9000307c:	000807b7          	lui	a5,0x80
90003080:	949ff06f          	j	900029c8 <__adddf3+0x19c>
90003084:	01ff0933          	add	s2,t5,t6
90003088:	010707b3          	add	a5,a4,a6
9000308c:	01f93633          	sltu	a2,s2,t6
90003090:	00c78633          	add	a2,a5,a2
90003094:	d39ff06f          	j	90002dcc <__adddf3+0x5a0>
90003098:	00361693          	slli	a3,a2,0x3
9000309c:	01d81793          	slli	a5,a6,0x1d
900030a0:	0036d693          	srli	a3,a3,0x3
900030a4:	00d7e8b3          	or	a7,a5,a3
900030a8:	00385793          	srli	a5,a6,0x3
900030ac:	b7dff06f          	j	90002c28 <__adddf3+0x3fc>

900030b0 <__divdf3>:
900030b0:	fc010113          	addi	sp,sp,-64
900030b4:	0145d793          	srli	a5,a1,0x14
900030b8:	02812c23          	sw	s0,56(sp)
900030bc:	03212823          	sw	s2,48(sp)
900030c0:	03512223          	sw	s5,36(sp)
900030c4:	00050913          	mv	s2,a0
900030c8:	00c59413          	slli	s0,a1,0xc
900030cc:	02112e23          	sw	ra,60(sp)
900030d0:	02912a23          	sw	s1,52(sp)
900030d4:	03312623          	sw	s3,44(sp)
900030d8:	03412423          	sw	s4,40(sp)
900030dc:	03612023          	sw	s6,32(sp)
900030e0:	01712e23          	sw	s7,28(sp)
900030e4:	7ff7f513          	andi	a0,a5,2047
900030e8:	00c45413          	srli	s0,s0,0xc
900030ec:	01f5da93          	srli	s5,a1,0x1f
900030f0:	16050a63          	beqz	a0,90003264 <__divdf3+0x1b4>
900030f4:	7ff00793          	li	a5,2047
900030f8:	1cf50463          	beq	a0,a5,900032c0 <__divdf3+0x210>
900030fc:	01d95a13          	srli	s4,s2,0x1d
90003100:	00341413          	slli	s0,s0,0x3
90003104:	008a6433          	or	s0,s4,s0
90003108:	00800a37          	lui	s4,0x800
9000310c:	01446a33          	or	s4,s0,s4
90003110:	00391b13          	slli	s6,s2,0x3
90003114:	c0150493          	addi	s1,a0,-1023
90003118:	00000413          	li	s0,0
9000311c:	00000b93          	li	s7,0
90003120:	0146d813          	srli	a6,a3,0x14
90003124:	00c69913          	slli	s2,a3,0xc
90003128:	7ff87813          	andi	a6,a6,2047
9000312c:	00060893          	mv	a7,a2
90003130:	00c95913          	srli	s2,s2,0xc
90003134:	01f6d993          	srli	s3,a3,0x1f
90003138:	0e080063          	beqz	a6,90003218 <__divdf3+0x168>
9000313c:	7ff00793          	li	a5,2047
90003140:	04f80863          	beq	a6,a5,90003190 <__divdf3+0xe0>
90003144:	01d65713          	srli	a4,a2,0x1d
90003148:	00391913          	slli	s2,s2,0x3
9000314c:	01276933          	or	s2,a4,s2
90003150:	c0180813          	addi	a6,a6,-1023
90003154:	008007b7          	lui	a5,0x800
90003158:	00f96733          	or	a4,s2,a5
9000315c:	00361893          	slli	a7,a2,0x3
90003160:	410484b3          	sub	s1,s1,a6
90003164:	00000593          	li	a1,0
90003168:	00f00793          	li	a5,15
9000316c:	013ac833          	xor	a6,s5,s3
90003170:	2487ee63          	bltu	a5,s0,900033cc <__divdf3+0x31c>
90003174:	efffd797          	auipc	a5,0xefffd
90003178:	05c78793          	addi	a5,a5,92 # 800001d0 <TWO52+0x20>
9000317c:	00241413          	slli	s0,s0,0x2
90003180:	00f40433          	add	s0,s0,a5
90003184:	00042603          	lw	a2,0(s0) # 3fe00000 <__stack_size+0x3fdfe000>
90003188:	00f60633          	add	a2,a2,a5
9000318c:	00060067          	jr	a2
90003190:	00c96733          	or	a4,s2,a2
90003194:	80148493          	addi	s1,s1,-2047
90003198:	18071063          	bnez	a4,90003318 <__divdf3+0x268>
9000319c:	00246413          	ori	s0,s0,2
900031a0:	00000893          	li	a7,0
900031a4:	00200593          	li	a1,2
900031a8:	fc1ff06f          	j	90003168 <__divdf3+0xb8>
900031ac:	7ff00613          	li	a2,2047
900031b0:	00000793          	li	a5,0
900031b4:	00000713          	li	a4,0
900031b8:	00c79793          	slli	a5,a5,0xc
900031bc:	03c12083          	lw	ra,60(sp)
900031c0:	03812403          	lw	s0,56(sp)
900031c4:	01461613          	slli	a2,a2,0x14
900031c8:	00c7d793          	srli	a5,a5,0xc
900031cc:	01f81813          	slli	a6,a6,0x1f
900031d0:	00c7e7b3          	or	a5,a5,a2
900031d4:	0107e7b3          	or	a5,a5,a6
900031d8:	03412483          	lw	s1,52(sp)
900031dc:	03012903          	lw	s2,48(sp)
900031e0:	02c12983          	lw	s3,44(sp)
900031e4:	02812a03          	lw	s4,40(sp)
900031e8:	02412a83          	lw	s5,36(sp)
900031ec:	02012b03          	lw	s6,32(sp)
900031f0:	01c12b83          	lw	s7,28(sp)
900031f4:	00070513          	mv	a0,a4
900031f8:	00078593          	mv	a1,a5
900031fc:	04010113          	addi	sp,sp,64
90003200:	00008067          	ret
90003204:	00000813          	li	a6,0
90003208:	7ff00613          	li	a2,2047
9000320c:	000807b7          	lui	a5,0x80
90003210:	00000713          	li	a4,0
90003214:	fa5ff06f          	j	900031b8 <__divdf3+0x108>
90003218:	00c96733          	or	a4,s2,a2
9000321c:	0e070663          	beqz	a4,90003308 <__divdf3+0x258>
90003220:	3e090e63          	beqz	s2,9000361c <__divdf3+0x56c>
90003224:	00090513          	mv	a0,s2
90003228:	00c12423          	sw	a2,8(sp)
9000322c:	00c020ef          	jal	ra,90005238 <__clzsi2>
90003230:	00812603          	lw	a2,8(sp)
90003234:	ff550713          	addi	a4,a0,-11
90003238:	01d00793          	li	a5,29
9000323c:	ff850693          	addi	a3,a0,-8
90003240:	40e787b3          	sub	a5,a5,a4
90003244:	00d91933          	sll	s2,s2,a3
90003248:	00f657b3          	srl	a5,a2,a5
9000324c:	0127e733          	or	a4,a5,s2
90003250:	00d618b3          	sll	a7,a2,a3
90003254:	00950533          	add	a0,a0,s1
90003258:	3f350493          	addi	s1,a0,1011
9000325c:	00000593          	li	a1,0
90003260:	f09ff06f          	j	90003168 <__divdf3+0xb8>
90003264:	01246a33          	or	s4,s0,s2
90003268:	080a0663          	beqz	s4,900032f4 <__divdf3+0x244>
9000326c:	00d12623          	sw	a3,12(sp)
90003270:	00c12423          	sw	a2,8(sp)
90003274:	36040c63          	beqz	s0,900035ec <__divdf3+0x53c>
90003278:	00040513          	mv	a0,s0
9000327c:	7bd010ef          	jal	ra,90005238 <__clzsi2>
90003280:	00812603          	lw	a2,8(sp)
90003284:	00c12683          	lw	a3,12(sp)
90003288:	00050493          	mv	s1,a0
9000328c:	ff550713          	addi	a4,a0,-11
90003290:	01d00a13          	li	s4,29
90003294:	ff848b13          	addi	s6,s1,-8
90003298:	40ea0a33          	sub	s4,s4,a4
9000329c:	01641433          	sll	s0,s0,s6
900032a0:	01495a33          	srl	s4,s2,s4
900032a4:	008a6a33          	or	s4,s4,s0
900032a8:	01691b33          	sll	s6,s2,s6
900032ac:	c0d00513          	li	a0,-1011
900032b0:	409504b3          	sub	s1,a0,s1
900032b4:	00000413          	li	s0,0
900032b8:	00000b93          	li	s7,0
900032bc:	e65ff06f          	j	90003120 <__divdf3+0x70>
900032c0:	01246a33          	or	s4,s0,s2
900032c4:	000a1c63          	bnez	s4,900032dc <__divdf3+0x22c>
900032c8:	00800413          	li	s0,8
900032cc:	00000b13          	li	s6,0
900032d0:	7ff00493          	li	s1,2047
900032d4:	00200b93          	li	s7,2
900032d8:	e49ff06f          	j	90003120 <__divdf3+0x70>
900032dc:	00040a13          	mv	s4,s0
900032e0:	00090b13          	mv	s6,s2
900032e4:	00c00413          	li	s0,12
900032e8:	7ff00493          	li	s1,2047
900032ec:	00300b93          	li	s7,3
900032f0:	e31ff06f          	j	90003120 <__divdf3+0x70>
900032f4:	00400413          	li	s0,4
900032f8:	00000b13          	li	s6,0
900032fc:	00000493          	li	s1,0
90003300:	00100b93          	li	s7,1
90003304:	e1dff06f          	j	90003120 <__divdf3+0x70>
90003308:	00146413          	ori	s0,s0,1
9000330c:	00000893          	li	a7,0
90003310:	00100593          	li	a1,1
90003314:	e55ff06f          	j	90003168 <__divdf3+0xb8>
90003318:	00346413          	ori	s0,s0,3
9000331c:	00090713          	mv	a4,s2
90003320:	00300593          	li	a1,3
90003324:	e45ff06f          	j	90003168 <__divdf3+0xb8>
90003328:	3c050463          	beqz	a0,900036f0 <__divdf3+0x640>
9000332c:	00100793          	li	a5,1
90003330:	40a787b3          	sub	a5,a5,a0
90003334:	03800693          	li	a3,56
90003338:	42f6d463          	bge	a3,a5,90003760 <__divdf3+0x6b0>
9000333c:	00000613          	li	a2,0
90003340:	00000793          	li	a5,0
90003344:	00000713          	li	a4,0
90003348:	e71ff06f          	j	900031b8 <__divdf3+0x108>
9000334c:	00098693          	mv	a3,s3
90003350:	00200793          	li	a5,2
90003354:	4cf58a63          	beq	a1,a5,90003828 <__divdf3+0x778>
90003358:	00300793          	li	a5,3
9000335c:	eaf584e3          	beq	a1,a5,90003204 <__divdf3+0x154>
90003360:	00100793          	li	a5,1
90003364:	00068813          	mv	a6,a3
90003368:	fcf58ae3          	beq	a1,a5,9000333c <__divdf3+0x28c>
9000336c:	3ff48513          	addi	a0,s1,1023
90003370:	faa05ce3          	blez	a0,90003328 <__divdf3+0x278>
90003374:	0078f793          	andi	a5,a7,7
90003378:	32079e63          	bnez	a5,900036b4 <__divdf3+0x604>
9000337c:	0038d693          	srli	a3,a7,0x3
90003380:	00771793          	slli	a5,a4,0x7
90003384:	0007da63          	bgez	a5,90003398 <__divdf3+0x2e8>
90003388:	ff0007b7          	lui	a5,0xff000
9000338c:	fff78793          	addi	a5,a5,-1 # feffffff <_data_lma+0x6effac97>
90003390:	00f77733          	and	a4,a4,a5
90003394:	40048513          	addi	a0,s1,1024
90003398:	7fe00793          	li	a5,2046
9000339c:	e0a7c8e3          	blt	a5,a0,900031ac <__divdf3+0xfc>
900033a0:	01d71613          	slli	a2,a4,0x1d
900033a4:	00971793          	slli	a5,a4,0x9
900033a8:	00c7d793          	srli	a5,a5,0xc
900033ac:	00d66733          	or	a4,a2,a3
900033b0:	7ff57613          	andi	a2,a0,2047
900033b4:	e05ff06f          	j	900031b8 <__divdf3+0x108>
900033b8:	000a8693          	mv	a3,s5
900033bc:	000a0713          	mv	a4,s4
900033c0:	000b0893          	mv	a7,s6
900033c4:	000b8593          	mv	a1,s7
900033c8:	f89ff06f          	j	90003350 <__divdf3+0x2a0>
900033cc:	2b476a63          	bltu	a4,s4,90003680 <__divdf3+0x5d0>
900033d0:	2aea0663          	beq	s4,a4,9000367c <__divdf3+0x5cc>
900033d4:	000b0693          	mv	a3,s6
900033d8:	fff48493          	addi	s1,s1,-1
900033dc:	000a0413          	mv	s0,s4
900033e0:	00000b13          	li	s6,0
900033e4:	00871793          	slli	a5,a4,0x8
900033e8:	0188d313          	srli	t1,a7,0x18
900033ec:	00f36333          	or	t1,t1,a5
900033f0:	01035e93          	srli	t4,t1,0x10
900033f4:	03d457b3          	divu	a5,s0,t4
900033f8:	01031f13          	slli	t5,t1,0x10
900033fc:	010f5f13          	srli	t5,t5,0x10
90003400:	0106d593          	srli	a1,a3,0x10
90003404:	00889e13          	slli	t3,a7,0x8
90003408:	03d47433          	remu	s0,s0,t4
9000340c:	02ff0733          	mul	a4,t5,a5
90003410:	01041413          	slli	s0,s0,0x10
90003414:	0085e5b3          	or	a1,a1,s0
90003418:	00e5fe63          	bgeu	a1,a4,90003434 <__divdf3+0x384>
9000341c:	006585b3          	add	a1,a1,t1
90003420:	fff78613          	addi	a2,a5,-1
90003424:	3265ea63          	bltu	a1,t1,90003758 <__divdf3+0x6a8>
90003428:	32e5f863          	bgeu	a1,a4,90003758 <__divdf3+0x6a8>
9000342c:	ffe78793          	addi	a5,a5,-2
90003430:	006585b3          	add	a1,a1,t1
90003434:	40e585b3          	sub	a1,a1,a4
90003438:	03d5d733          	divu	a4,a1,t4
9000343c:	01069693          	slli	a3,a3,0x10
90003440:	0106d693          	srli	a3,a3,0x10
90003444:	03d5f5b3          	remu	a1,a1,t4
90003448:	02ef0633          	mul	a2,t5,a4
9000344c:	01059593          	slli	a1,a1,0x10
90003450:	00b6e5b3          	or	a1,a3,a1
90003454:	00c5fe63          	bgeu	a1,a2,90003470 <__divdf3+0x3c0>
90003458:	006585b3          	add	a1,a1,t1
9000345c:	fff70693          	addi	a3,a4,-1
90003460:	2e65e863          	bltu	a1,t1,90003750 <__divdf3+0x6a0>
90003464:	2ec5f663          	bgeu	a1,a2,90003750 <__divdf3+0x6a0>
90003468:	ffe70713          	addi	a4,a4,-2
9000346c:	006585b3          	add	a1,a1,t1
90003470:	01079793          	slli	a5,a5,0x10
90003474:	00010437          	lui	s0,0x10
90003478:	00e7e733          	or	a4,a5,a4
9000347c:	fff40793          	addi	a5,s0,-1 # ffff <__stack_size+0xdfff>
90003480:	00f77533          	and	a0,a4,a5
90003484:	01075893          	srli	a7,a4,0x10
90003488:	010e5f93          	srli	t6,t3,0x10
9000348c:	00fe77b3          	and	a5,t3,a5
90003490:	02f502b3          	mul	t0,a0,a5
90003494:	40c586b3          	sub	a3,a1,a2
90003498:	02f883b3          	mul	t2,a7,a5
9000349c:	0102d593          	srli	a1,t0,0x10
900034a0:	02af8633          	mul	a2,t6,a0
900034a4:	00760633          	add	a2,a2,t2
900034a8:	00c58633          	add	a2,a1,a2
900034ac:	03f88533          	mul	a0,a7,t6
900034b0:	00767463          	bgeu	a2,t2,900034b8 <__divdf3+0x408>
900034b4:	00850533          	add	a0,a0,s0
900034b8:	000108b7          	lui	a7,0x10
900034bc:	fff88893          	addi	a7,a7,-1 # ffff <__stack_size+0xdfff>
900034c0:	01065593          	srli	a1,a2,0x10
900034c4:	01167633          	and	a2,a2,a7
900034c8:	01061613          	slli	a2,a2,0x10
900034cc:	0112f8b3          	and	a7,t0,a7
900034d0:	00a585b3          	add	a1,a1,a0
900034d4:	01160633          	add	a2,a2,a7
900034d8:	16b6ee63          	bltu	a3,a1,90003654 <__divdf3+0x5a4>
900034dc:	16b68a63          	beq	a3,a1,90003650 <__divdf3+0x5a0>
900034e0:	40cb0633          	sub	a2,s6,a2
900034e4:	40b686b3          	sub	a3,a3,a1
900034e8:	00cb3b33          	sltu	s6,s6,a2
900034ec:	41668b33          	sub	s6,a3,s6
900034f0:	3ff48513          	addi	a0,s1,1023
900034f4:	1f630263          	beq	t1,s6,900036d8 <__divdf3+0x628>
900034f8:	03db58b3          	divu	a7,s6,t4
900034fc:	01065593          	srli	a1,a2,0x10
90003500:	03db7b33          	remu	s6,s6,t4
90003504:	031f06b3          	mul	a3,t5,a7
90003508:	010b1b13          	slli	s6,s6,0x10
9000350c:	0165eb33          	or	s6,a1,s6
90003510:	00db7e63          	bgeu	s6,a3,9000352c <__divdf3+0x47c>
90003514:	006b0b33          	add	s6,s6,t1
90003518:	fff88593          	addi	a1,a7,-1
9000351c:	2c6b6463          	bltu	s6,t1,900037e4 <__divdf3+0x734>
90003520:	2cdb7263          	bgeu	s6,a3,900037e4 <__divdf3+0x734>
90003524:	ffe88893          	addi	a7,a7,-2
90003528:	006b0b33          	add	s6,s6,t1
9000352c:	40db0b33          	sub	s6,s6,a3
90003530:	03db56b3          	divu	a3,s6,t4
90003534:	01061613          	slli	a2,a2,0x10
90003538:	01065613          	srli	a2,a2,0x10
9000353c:	03db7b33          	remu	s6,s6,t4
90003540:	02df0f33          	mul	t5,t5,a3
90003544:	010b1b13          	slli	s6,s6,0x10
90003548:	01666633          	or	a2,a2,s6
9000354c:	01e67e63          	bgeu	a2,t5,90003568 <__divdf3+0x4b8>
90003550:	00660633          	add	a2,a2,t1
90003554:	fff68593          	addi	a1,a3,-1 # 7fffff <__stack_size+0x7fdfff>
90003558:	28666a63          	bltu	a2,t1,900037ec <__divdf3+0x73c>
9000355c:	29e67863          	bgeu	a2,t5,900037ec <__divdf3+0x73c>
90003560:	ffe68693          	addi	a3,a3,-2
90003564:	00660633          	add	a2,a2,t1
90003568:	01089893          	slli	a7,a7,0x10
9000356c:	00d8e8b3          	or	a7,a7,a3
90003570:	01089593          	slli	a1,a7,0x10
90003574:	0108d293          	srli	t0,a7,0x10
90003578:	0105d593          	srli	a1,a1,0x10
9000357c:	02f58eb3          	mul	t4,a1,a5
90003580:	41e60633          	sub	a2,a2,t5
90003584:	02bf85b3          	mul	a1,t6,a1
90003588:	010ed693          	srli	a3,t4,0x10
9000358c:	02f287b3          	mul	a5,t0,a5
90003590:	00f585b3          	add	a1,a1,a5
90003594:	00b686b3          	add	a3,a3,a1
90003598:	025f8fb3          	mul	t6,t6,t0
9000359c:	00f6f663          	bgeu	a3,a5,900035a8 <__divdf3+0x4f8>
900035a0:	000107b7          	lui	a5,0x10
900035a4:	00ff8fb3          	add	t6,t6,a5
900035a8:	000105b7          	lui	a1,0x10
900035ac:	fff58593          	addi	a1,a1,-1 # ffff <__stack_size+0xdfff>
900035b0:	0106d793          	srli	a5,a3,0x10
900035b4:	00b6f6b3          	and	a3,a3,a1
900035b8:	01069693          	slli	a3,a3,0x10
900035bc:	00befeb3          	and	t4,t4,a1
900035c0:	01f78fb3          	add	t6,a5,t6
900035c4:	01d686b3          	add	a3,a3,t4
900035c8:	0df67863          	bgeu	a2,t6,90003698 <__divdf3+0x5e8>
900035cc:	00c30633          	add	a2,t1,a2
900035d0:	fff88793          	addi	a5,a7,-1
900035d4:	24666463          	bltu	a2,t1,9000381c <__divdf3+0x76c>
900035d8:	21f66e63          	bltu	a2,t6,900037f4 <__divdf3+0x744>
900035dc:	27f60063          	beq	a2,t6,9000383c <__divdf3+0x78c>
900035e0:	00078893          	mv	a7,a5
900035e4:	0018e893          	ori	a7,a7,1
900035e8:	d89ff06f          	j	90003370 <__divdf3+0x2c0>
900035ec:	00090513          	mv	a0,s2
900035f0:	449010ef          	jal	ra,90005238 <__clzsi2>
900035f4:	01550713          	addi	a4,a0,21
900035f8:	01c00593          	li	a1,28
900035fc:	02050493          	addi	s1,a0,32
90003600:	00812603          	lw	a2,8(sp)
90003604:	00c12683          	lw	a3,12(sp)
90003608:	c8e5d4e3          	bge	a1,a4,90003290 <__divdf3+0x1e0>
9000360c:	ff850413          	addi	s0,a0,-8
90003610:	00891a33          	sll	s4,s2,s0
90003614:	00000b13          	li	s6,0
90003618:	c95ff06f          	j	900032ac <__divdf3+0x1fc>
9000361c:	00060513          	mv	a0,a2
90003620:	00c12423          	sw	a2,8(sp)
90003624:	415010ef          	jal	ra,90005238 <__clzsi2>
90003628:	01550713          	addi	a4,a0,21
9000362c:	01c00693          	li	a3,28
90003630:	00050793          	mv	a5,a0
90003634:	00812603          	lw	a2,8(sp)
90003638:	02050513          	addi	a0,a0,32
9000363c:	bee6dee3          	bge	a3,a4,90003238 <__divdf3+0x188>
90003640:	ff878793          	addi	a5,a5,-8 # fff8 <__stack_size+0xdff8>
90003644:	00f61733          	sll	a4,a2,a5
90003648:	00000893          	li	a7,0
9000364c:	c09ff06f          	j	90003254 <__divdf3+0x1a4>
90003650:	e8cb78e3          	bgeu	s6,a2,900034e0 <__divdf3+0x430>
90003654:	01cb0b33          	add	s6,s6,t3
90003658:	01cb3533          	sltu	a0,s6,t3
9000365c:	00650533          	add	a0,a0,t1
90003660:	00a686b3          	add	a3,a3,a0
90003664:	fff70513          	addi	a0,a4,-1
90003668:	02d37e63          	bgeu	t1,a3,900036a4 <__divdf3+0x5f4>
9000366c:	16b6e063          	bltu	a3,a1,900037cc <__divdf3+0x71c>
90003670:	14d58c63          	beq	a1,a3,900037c8 <__divdf3+0x718>
90003674:	00050713          	mv	a4,a0
90003678:	e69ff06f          	j	900034e0 <__divdf3+0x430>
9000367c:	d51b6ce3          	bltu	s6,a7,900033d4 <__divdf3+0x324>
90003680:	001b5593          	srli	a1,s6,0x1
90003684:	01fa1693          	slli	a3,s4,0x1f
90003688:	001a5413          	srli	s0,s4,0x1
9000368c:	00b6e6b3          	or	a3,a3,a1
90003690:	01fb1b13          	slli	s6,s6,0x1f
90003694:	d51ff06f          	j	900033e4 <__divdf3+0x334>
90003698:	f5f616e3          	bne	a2,t6,900035e4 <__divdf3+0x534>
9000369c:	cc068ae3          	beqz	a3,90003370 <__divdf3+0x2c0>
900036a0:	f2dff06f          	j	900035cc <__divdf3+0x51c>
900036a4:	fcd318e3          	bne	t1,a3,90003674 <__divdf3+0x5c4>
900036a8:	fdcb72e3          	bgeu	s6,t3,9000366c <__divdf3+0x5bc>
900036ac:	00050713          	mv	a4,a0
900036b0:	e31ff06f          	j	900034e0 <__divdf3+0x430>
900036b4:	00f8f793          	andi	a5,a7,15
900036b8:	00400693          	li	a3,4
900036bc:	ccd780e3          	beq	a5,a3,9000337c <__divdf3+0x2cc>
900036c0:	ffc8b793          	sltiu	a5,a7,-4
900036c4:	00488693          	addi	a3,a7,4
900036c8:	0017c793          	xori	a5,a5,1
900036cc:	0036d693          	srli	a3,a3,0x3
900036d0:	00f70733          	add	a4,a4,a5
900036d4:	cadff06f          	j	90003380 <__divdf3+0x2d0>
900036d8:	00000693          	li	a3,0
900036dc:	00100793          	li	a5,1
900036e0:	fea048e3          	bgtz	a0,900036d0 <__divdf3+0x620>
900036e4:	fff00893          	li	a7,-1
900036e8:	c40512e3          	bnez	a0,9000332c <__divdf3+0x27c>
900036ec:	c0100493          	li	s1,-1023
900036f0:	00100793          	li	a5,1
900036f4:	41e48513          	addi	a0,s1,1054
900036f8:	00a716b3          	sll	a3,a4,a0
900036fc:	00f8d633          	srl	a2,a7,a5
90003700:	00a89533          	sll	a0,a7,a0
90003704:	00c6e6b3          	or	a3,a3,a2
90003708:	00a03533          	snez	a0,a0
9000370c:	00a6e6b3          	or	a3,a3,a0
90003710:	0076f613          	andi	a2,a3,7
90003714:	00f75733          	srl	a4,a4,a5
90003718:	02060063          	beqz	a2,90003738 <__divdf3+0x688>
9000371c:	00f6f793          	andi	a5,a3,15
90003720:	00400613          	li	a2,4
90003724:	00c78a63          	beq	a5,a2,90003738 <__divdf3+0x688>
90003728:	00468793          	addi	a5,a3,4
9000372c:	00d7b6b3          	sltu	a3,a5,a3
90003730:	00d70733          	add	a4,a4,a3
90003734:	00078693          	mv	a3,a5
90003738:	00871793          	slli	a5,a4,0x8
9000373c:	0607d863          	bgez	a5,900037ac <__divdf3+0x6fc>
90003740:	00100613          	li	a2,1
90003744:	00000793          	li	a5,0
90003748:	00000713          	li	a4,0
9000374c:	a6dff06f          	j	900031b8 <__divdf3+0x108>
90003750:	00068713          	mv	a4,a3
90003754:	d1dff06f          	j	90003470 <__divdf3+0x3c0>
90003758:	00060793          	mv	a5,a2
9000375c:	cd9ff06f          	j	90003434 <__divdf3+0x384>
90003760:	01f00693          	li	a3,31
90003764:	f8f6d8e3          	bge	a3,a5,900036f4 <__divdf3+0x644>
90003768:	fe100613          	li	a2,-31
9000376c:	40a60633          	sub	a2,a2,a0
90003770:	02000693          	li	a3,32
90003774:	00c75633          	srl	a2,a4,a2
90003778:	00d78863          	beq	a5,a3,90003788 <__divdf3+0x6d8>
9000377c:	43e48793          	addi	a5,s1,1086
90003780:	00f717b3          	sll	a5,a4,a5
90003784:	00f8e8b3          	or	a7,a7,a5
90003788:	011036b3          	snez	a3,a7
9000378c:	00c6e6b3          	or	a3,a3,a2
90003790:	0076f613          	andi	a2,a3,7
90003794:	00000793          	li	a5,0
90003798:	02060063          	beqz	a2,900037b8 <__divdf3+0x708>
9000379c:	00f6f793          	andi	a5,a3,15
900037a0:	00400613          	li	a2,4
900037a4:	00000713          	li	a4,0
900037a8:	f8c790e3          	bne	a5,a2,90003728 <__divdf3+0x678>
900037ac:	00971793          	slli	a5,a4,0x9
900037b0:	01d71613          	slli	a2,a4,0x1d
900037b4:	00c7d793          	srli	a5,a5,0xc
900037b8:	0036d713          	srli	a4,a3,0x3
900037bc:	00c76733          	or	a4,a4,a2
900037c0:	00000613          	li	a2,0
900037c4:	9f5ff06f          	j	900031b8 <__divdf3+0x108>
900037c8:	eacb76e3          	bgeu	s6,a2,90003674 <__divdf3+0x5c4>
900037cc:	01cb0b33          	add	s6,s6,t3
900037d0:	01cb3533          	sltu	a0,s6,t3
900037d4:	00650533          	add	a0,a0,t1
900037d8:	ffe70713          	addi	a4,a4,-2
900037dc:	00a686b3          	add	a3,a3,a0
900037e0:	d01ff06f          	j	900034e0 <__divdf3+0x430>
900037e4:	00058893          	mv	a7,a1
900037e8:	d45ff06f          	j	9000352c <__divdf3+0x47c>
900037ec:	00058693          	mv	a3,a1
900037f0:	d79ff06f          	j	90003568 <__divdf3+0x4b8>
900037f4:	001e1793          	slli	a5,t3,0x1
900037f8:	01c7be33          	sltu	t3,a5,t3
900037fc:	006e0333          	add	t1,t3,t1
90003800:	00660633          	add	a2,a2,t1
90003804:	ffe88893          	addi	a7,a7,-2
90003808:	00078e13          	mv	t3,a5
9000380c:	ddf61ce3          	bne	a2,t6,900035e4 <__divdf3+0x534>
90003810:	b6de00e3          	beq	t3,a3,90003370 <__divdf3+0x2c0>
90003814:	0018e893          	ori	a7,a7,1
90003818:	b59ff06f          	j	90003370 <__divdf3+0x2c0>
9000381c:	00078893          	mv	a7,a5
90003820:	fff608e3          	beq	a2,t6,90003810 <__divdf3+0x760>
90003824:	dc1ff06f          	j	900035e4 <__divdf3+0x534>
90003828:	00068813          	mv	a6,a3
9000382c:	7ff00613          	li	a2,2047
90003830:	00000793          	li	a5,0
90003834:	00000713          	li	a4,0
90003838:	981ff06f          	j	900031b8 <__divdf3+0x108>
9000383c:	fade6ce3          	bltu	t3,a3,900037f4 <__divdf3+0x744>
90003840:	00078893          	mv	a7,a5
90003844:	fcde18e3          	bne	t3,a3,90003814 <__divdf3+0x764>
90003848:	b29ff06f          	j	90003370 <__divdf3+0x2c0>

9000384c <__eqdf2>:
9000384c:	0145d713          	srli	a4,a1,0x14
90003850:	001007b7          	lui	a5,0x100
90003854:	fff78793          	addi	a5,a5,-1 # fffff <__stack_size+0xfdfff>
90003858:	0146d813          	srli	a6,a3,0x14
9000385c:	7ff77713          	andi	a4,a4,2047
90003860:	7ff00893          	li	a7,2047
90003864:	00b7fe33          	and	t3,a5,a1
90003868:	00050e93          	mv	t4,a0
9000386c:	00d7f7b3          	and	a5,a5,a3
90003870:	01f5d593          	srli	a1,a1,0x1f
90003874:	00060f13          	mv	t5,a2
90003878:	7ff87813          	andi	a6,a6,2047
9000387c:	01f6d693          	srli	a3,a3,0x1f
90003880:	01170e63          	beq	a4,a7,9000389c <__eqdf2+0x50>
90003884:	00100313          	li	t1,1
90003888:	01180663          	beq	a6,a7,90003894 <__eqdf2+0x48>
9000388c:	01071463          	bne	a4,a6,90003894 <__eqdf2+0x48>
90003890:	02fe0263          	beq	t3,a5,900038b4 <__eqdf2+0x68>
90003894:	00030513          	mv	a0,t1
90003898:	00008067          	ret
9000389c:	00ae68b3          	or	a7,t3,a0
900038a0:	00100313          	li	t1,1
900038a4:	fe0898e3          	bnez	a7,90003894 <__eqdf2+0x48>
900038a8:	fee816e3          	bne	a6,a4,90003894 <__eqdf2+0x48>
900038ac:	00c7e7b3          	or	a5,a5,a2
900038b0:	fe0792e3          	bnez	a5,90003894 <__eqdf2+0x48>
900038b4:	00100313          	li	t1,1
900038b8:	fdee9ee3          	bne	t4,t5,90003894 <__eqdf2+0x48>
900038bc:	00000313          	li	t1,0
900038c0:	fcd58ae3          	beq	a1,a3,90003894 <__eqdf2+0x48>
900038c4:	00100313          	li	t1,1
900038c8:	fc0716e3          	bnez	a4,90003894 <__eqdf2+0x48>
900038cc:	00ae6533          	or	a0,t3,a0
900038d0:	00a03333          	snez	t1,a0
900038d4:	fc1ff06f          	j	90003894 <__eqdf2+0x48>

900038d8 <__gedf2>:
900038d8:	0145d713          	srli	a4,a1,0x14
900038dc:	001007b7          	lui	a5,0x100
900038e0:	fff78793          	addi	a5,a5,-1 # fffff <__stack_size+0xfdfff>
900038e4:	0146d813          	srli	a6,a3,0x14
900038e8:	7ff77713          	andi	a4,a4,2047
900038ec:	7ff00893          	li	a7,2047
900038f0:	00b7f333          	and	t1,a5,a1
900038f4:	00050e13          	mv	t3,a0
900038f8:	00d7f7b3          	and	a5,a5,a3
900038fc:	01f5d593          	srli	a1,a1,0x1f
90003900:	00060e93          	mv	t4,a2
90003904:	7ff87813          	andi	a6,a6,2047
90003908:	01f6d693          	srli	a3,a3,0x1f
9000390c:	05170063          	beq	a4,a7,9000394c <__gedf2+0x74>
90003910:	03180663          	beq	a6,a7,9000393c <__gedf2+0x64>
90003914:	04071263          	bnez	a4,90003958 <__gedf2+0x80>
90003918:	00a368b3          	or	a7,t1,a0
9000391c:	00081663          	bnez	a6,90003928 <__gedf2+0x50>
90003920:	00c7e633          	or	a2,a5,a2
90003924:	06060863          	beqz	a2,90003994 <__gedf2+0xbc>
90003928:	06088063          	beqz	a7,90003988 <__gedf2+0xb0>
9000392c:	04d58063          	beq	a1,a3,9000396c <__gedf2+0x94>
90003930:	00100513          	li	a0,1
90003934:	04059663          	bnez	a1,90003980 <__gedf2+0xa8>
90003938:	00008067          	ret
9000393c:	00c7e8b3          	or	a7,a5,a2
90003940:	fc088ae3          	beqz	a7,90003914 <__gedf2+0x3c>
90003944:	ffe00513          	li	a0,-2
90003948:	00008067          	ret
9000394c:	00a36533          	or	a0,t1,a0
90003950:	fe051ae3          	bnez	a0,90003944 <__gedf2+0x6c>
90003954:	04e80663          	beq	a6,a4,900039a0 <__gedf2+0xc8>
90003958:	00081663          	bnez	a6,90003964 <__gedf2+0x8c>
9000395c:	00c7e633          	or	a2,a5,a2
90003960:	fc0608e3          	beqz	a2,90003930 <__gedf2+0x58>
90003964:	fcd596e3          	bne	a1,a3,90003930 <__gedf2+0x58>
90003968:	fce844e3          	blt	a6,a4,90003930 <__gedf2+0x58>
9000396c:	01074863          	blt	a4,a6,9000397c <__gedf2+0xa4>
90003970:	fc67e0e3          	bltu	a5,t1,90003930 <__gedf2+0x58>
90003974:	04f30063          	beq	t1,a5,900039b4 <__gedf2+0xdc>
90003978:	02f37a63          	bgeu	t1,a5,900039ac <__gedf2+0xd4>
9000397c:	00059863          	bnez	a1,9000398c <__gedf2+0xb4>
90003980:	fff00513          	li	a0,-1
90003984:	00008067          	ret
90003988:	fe068ce3          	beqz	a3,90003980 <__gedf2+0xa8>
9000398c:	00100513          	li	a0,1
90003990:	00008067          	ret
90003994:	00000513          	li	a0,0
90003998:	f8089ce3          	bnez	a7,90003930 <__gedf2+0x58>
9000399c:	00008067          	ret
900039a0:	00c7e633          	or	a2,a5,a2
900039a4:	fc0600e3          	beqz	a2,90003964 <__gedf2+0x8c>
900039a8:	f9dff06f          	j	90003944 <__gedf2+0x6c>
900039ac:	00000513          	li	a0,0
900039b0:	00008067          	ret
900039b4:	f7ceeee3          	bltu	t4,t3,90003930 <__gedf2+0x58>
900039b8:	00000513          	li	a0,0
900039bc:	f7de7ee3          	bgeu	t3,t4,90003938 <__gedf2+0x60>
900039c0:	fc0596e3          	bnez	a1,9000398c <__gedf2+0xb4>
900039c4:	fbdff06f          	j	90003980 <__gedf2+0xa8>

900039c8 <__ledf2>:
900039c8:	0145d713          	srli	a4,a1,0x14
900039cc:	001007b7          	lui	a5,0x100
900039d0:	fff78793          	addi	a5,a5,-1 # fffff <__stack_size+0xfdfff>
900039d4:	0146d813          	srli	a6,a3,0x14
900039d8:	7ff77713          	andi	a4,a4,2047
900039dc:	7ff00893          	li	a7,2047
900039e0:	00b7fe33          	and	t3,a5,a1
900039e4:	00050e93          	mv	t4,a0
900039e8:	00d7f7b3          	and	a5,a5,a3
900039ec:	01f5d593          	srli	a1,a1,0x1f
900039f0:	00060f13          	mv	t5,a2
900039f4:	7ff87813          	andi	a6,a6,2047
900039f8:	01f6d693          	srli	a3,a3,0x1f
900039fc:	05170a63          	beq	a4,a7,90003a50 <__ledf2+0x88>
90003a00:	03180263          	beq	a6,a7,90003a24 <__ledf2+0x5c>
90003a04:	04071e63          	bnez	a4,90003a60 <__ledf2+0x98>
90003a08:	00ae68b3          	or	a7,t3,a0
90003a0c:	02081663          	bnez	a6,90003a38 <__ledf2+0x70>
90003a10:	00c7e633          	or	a2,a5,a2
90003a14:	02061263          	bnez	a2,90003a38 <__ledf2+0x70>
90003a18:	00000313          	li	t1,0
90003a1c:	06088a63          	beqz	a7,90003a90 <__ledf2+0xc8>
90003a20:	0200006f          	j	90003a40 <__ledf2+0x78>
90003a24:	00c7e8b3          	or	a7,a5,a2
90003a28:	00200313          	li	t1,2
90003a2c:	06089263          	bnez	a7,90003a90 <__ledf2+0xc8>
90003a30:	fc070ce3          	beqz	a4,90003a08 <__ledf2+0x40>
90003a34:	02c0006f          	j	90003a60 <__ledf2+0x98>
90003a38:	06088063          	beqz	a7,90003a98 <__ledf2+0xd0>
90003a3c:	02d58c63          	beq	a1,a3,90003a74 <__ledf2+0xac>
90003a40:	00100313          	li	t1,1
90003a44:	04058663          	beqz	a1,90003a90 <__ledf2+0xc8>
90003a48:	fff00313          	li	t1,-1
90003a4c:	0440006f          	j	90003a90 <__ledf2+0xc8>
90003a50:	00ae68b3          	or	a7,t3,a0
90003a54:	00200313          	li	t1,2
90003a58:	02089c63          	bnez	a7,90003a90 <__ledf2+0xc8>
90003a5c:	04e80463          	beq	a6,a4,90003aa4 <__ledf2+0xdc>
90003a60:	00081663          	bnez	a6,90003a6c <__ledf2+0xa4>
90003a64:	00c7e633          	or	a2,a5,a2
90003a68:	fc060ce3          	beqz	a2,90003a40 <__ledf2+0x78>
90003a6c:	fcd59ae3          	bne	a1,a3,90003a40 <__ledf2+0x78>
90003a70:	fce848e3          	blt	a6,a4,90003a40 <__ledf2+0x78>
90003a74:	01074a63          	blt	a4,a6,90003a88 <__ledf2+0xc0>
90003a78:	fdc7e4e3          	bltu	a5,t3,90003a40 <__ledf2+0x78>
90003a7c:	02fe0a63          	beq	t3,a5,90003ab0 <__ledf2+0xe8>
90003a80:	00000313          	li	t1,0
90003a84:	00fe7663          	bgeu	t3,a5,90003a90 <__ledf2+0xc8>
90003a88:	fc0580e3          	beqz	a1,90003a48 <__ledf2+0x80>
90003a8c:	00100313          	li	t1,1
90003a90:	00030513          	mv	a0,t1
90003a94:	00008067          	ret
90003a98:	fe069ae3          	bnez	a3,90003a8c <__ledf2+0xc4>
90003a9c:	fff00313          	li	t1,-1
90003aa0:	ff1ff06f          	j	90003a90 <__ledf2+0xc8>
90003aa4:	00c7e633          	or	a2,a5,a2
90003aa8:	fc0602e3          	beqz	a2,90003a6c <__ledf2+0xa4>
90003aac:	fe5ff06f          	j	90003a90 <__ledf2+0xc8>
90003ab0:	f9df68e3          	bltu	t5,t4,90003a40 <__ledf2+0x78>
90003ab4:	00000313          	li	t1,0
90003ab8:	fdeefce3          	bgeu	t4,t5,90003a90 <__ledf2+0xc8>
90003abc:	fc0598e3          	bnez	a1,90003a8c <__ledf2+0xc4>
90003ac0:	f89ff06f          	j	90003a48 <__ledf2+0x80>

90003ac4 <__muldf3>:
90003ac4:	fc010113          	addi	sp,sp,-64
90003ac8:	03212823          	sw	s2,48(sp)
90003acc:	0145d913          	srli	s2,a1,0x14
90003ad0:	03312623          	sw	s3,44(sp)
90003ad4:	03412423          	sw	s4,40(sp)
90003ad8:	03512223          	sw	s5,36(sp)
90003adc:	00c59993          	slli	s3,a1,0xc
90003ae0:	02112e23          	sw	ra,60(sp)
90003ae4:	02812c23          	sw	s0,56(sp)
90003ae8:	02912a23          	sw	s1,52(sp)
90003aec:	03612023          	sw	s6,32(sp)
90003af0:	01712e23          	sw	s7,28(sp)
90003af4:	7ff97913          	andi	s2,s2,2047
90003af8:	00050a13          	mv	s4,a0
90003afc:	00c9d993          	srli	s3,s3,0xc
90003b00:	01f5da93          	srli	s5,a1,0x1f
90003b04:	14090e63          	beqz	s2,90003c60 <__muldf3+0x19c>
90003b08:	7ff00793          	li	a5,2047
90003b0c:	20f90c63          	beq	s2,a5,90003d24 <__muldf3+0x260>
90003b10:	01d55413          	srli	s0,a0,0x1d
90003b14:	00399993          	slli	s3,s3,0x3
90003b18:	013469b3          	or	s3,s0,s3
90003b1c:	00800437          	lui	s0,0x800
90003b20:	0089e433          	or	s0,s3,s0
90003b24:	00351493          	slli	s1,a0,0x3
90003b28:	c0190913          	addi	s2,s2,-1023
90003b2c:	00000993          	li	s3,0
90003b30:	00000b93          	li	s7,0
90003b34:	0146d713          	srli	a4,a3,0x14
90003b38:	00c69a13          	slli	s4,a3,0xc
90003b3c:	7ff77713          	andi	a4,a4,2047
90003b40:	00060593          	mv	a1,a2
90003b44:	00ca5a13          	srli	s4,s4,0xc
90003b48:	01f6db13          	srli	s6,a3,0x1f
90003b4c:	18070463          	beqz	a4,90003cd4 <__muldf3+0x210>
90003b50:	7ff00793          	li	a5,2047
90003b54:	04f70c63          	beq	a4,a5,90003bac <__muldf3+0xe8>
90003b58:	01d65793          	srli	a5,a2,0x1d
90003b5c:	003a1a13          	slli	s4,s4,0x3
90003b60:	0147ea33          	or	s4,a5,s4
90003b64:	c0170713          	addi	a4,a4,-1023
90003b68:	008007b7          	lui	a5,0x800
90003b6c:	00fa67b3          	or	a5,s4,a5
90003b70:	00361593          	slli	a1,a2,0x3
90003b74:	00e90933          	add	s2,s2,a4
90003b78:	00000893          	li	a7,0
90003b7c:	016ac733          	xor	a4,s5,s6
90003b80:	00f00693          	li	a3,15
90003b84:	00070513          	mv	a0,a4
90003b88:	00190813          	addi	a6,s2,1
90003b8c:	2336e063          	bltu	a3,s3,90003dac <__muldf3+0x2e8>
90003b90:	efffc617          	auipc	a2,0xefffc
90003b94:	68060613          	addi	a2,a2,1664 # 80000210 <TWO52+0x60>
90003b98:	00299993          	slli	s3,s3,0x2
90003b9c:	00c989b3          	add	s3,s3,a2
90003ba0:	0009a683          	lw	a3,0(s3) # 40000 <__stack_size+0x3e000>
90003ba4:	00c686b3          	add	a3,a3,a2
90003ba8:	00068067          	jr	a3
90003bac:	00ca67b3          	or	a5,s4,a2
90003bb0:	7ff90913          	addi	s2,s2,2047
90003bb4:	1c079463          	bnez	a5,90003d7c <__muldf3+0x2b8>
90003bb8:	0029e993          	ori	s3,s3,2
90003bbc:	00000593          	li	a1,0
90003bc0:	00200893          	li	a7,2
90003bc4:	fb9ff06f          	j	90003b7c <__muldf3+0xb8>
90003bc8:	00000713          	li	a4,0
90003bcc:	7ff00793          	li	a5,2047
90003bd0:	00080437          	lui	s0,0x80
90003bd4:	00000493          	li	s1,0
90003bd8:	00c41413          	slli	s0,s0,0xc
90003bdc:	01479793          	slli	a5,a5,0x14
90003be0:	00c45413          	srli	s0,s0,0xc
90003be4:	01f71713          	slli	a4,a4,0x1f
90003be8:	00f46433          	or	s0,s0,a5
90003bec:	00e46433          	or	s0,s0,a4
90003bf0:	00040593          	mv	a1,s0
90003bf4:	03c12083          	lw	ra,60(sp)
90003bf8:	03812403          	lw	s0,56(sp)
90003bfc:	00048513          	mv	a0,s1
90003c00:	03012903          	lw	s2,48(sp)
90003c04:	03412483          	lw	s1,52(sp)
90003c08:	02c12983          	lw	s3,44(sp)
90003c0c:	02812a03          	lw	s4,40(sp)
90003c10:	02412a83          	lw	s5,36(sp)
90003c14:	02012b03          	lw	s6,32(sp)
90003c18:	01c12b83          	lw	s7,28(sp)
90003c1c:	04010113          	addi	sp,sp,64
90003c20:	00008067          	ret
90003c24:	000b0513          	mv	a0,s6
90003c28:	00078413          	mv	s0,a5
90003c2c:	00058493          	mv	s1,a1
90003c30:	00088b93          	mv	s7,a7
90003c34:	00200793          	li	a5,2
90003c38:	16fb8063          	beq	s7,a5,90003d98 <__muldf3+0x2d4>
90003c3c:	00300793          	li	a5,3
90003c40:	f8fb84e3          	beq	s7,a5,90003bc8 <__muldf3+0x104>
90003c44:	00100793          	li	a5,1
90003c48:	00050713          	mv	a4,a0
90003c4c:	4cfb9863          	bne	s7,a5,9000411c <__muldf3+0x658>
90003c50:	00000793          	li	a5,0
90003c54:	00000413          	li	s0,0
90003c58:	00000493          	li	s1,0
90003c5c:	f7dff06f          	j	90003bd8 <__muldf3+0x114>
90003c60:	00a9e433          	or	s0,s3,a0
90003c64:	10040263          	beqz	s0,90003d68 <__muldf3+0x2a4>
90003c68:	00d12623          	sw	a3,12(sp)
90003c6c:	00c12423          	sw	a2,8(sp)
90003c70:	38098c63          	beqz	s3,90004008 <__muldf3+0x544>
90003c74:	00098513          	mv	a0,s3
90003c78:	5c0010ef          	jal	ra,90005238 <__clzsi2>
90003c7c:	00812603          	lw	a2,8(sp)
90003c80:	00c12683          	lw	a3,12(sp)
90003c84:	00050793          	mv	a5,a0
90003c88:	ff550713          	addi	a4,a0,-11
90003c8c:	01d00413          	li	s0,29
90003c90:	ff878493          	addi	s1,a5,-8 # 7ffff8 <__stack_size+0x7fdff8>
90003c94:	40e40433          	sub	s0,s0,a4
90003c98:	009999b3          	sll	s3,s3,s1
90003c9c:	008a5433          	srl	s0,s4,s0
90003ca0:	01346433          	or	s0,s0,s3
90003ca4:	009a14b3          	sll	s1,s4,s1
90003ca8:	0146d713          	srli	a4,a3,0x14
90003cac:	c0d00913          	li	s2,-1011
90003cb0:	00c69a13          	slli	s4,a3,0xc
90003cb4:	7ff77713          	andi	a4,a4,2047
90003cb8:	40f90933          	sub	s2,s2,a5
90003cbc:	00000993          	li	s3,0
90003cc0:	00000b93          	li	s7,0
90003cc4:	00060593          	mv	a1,a2
90003cc8:	00ca5a13          	srli	s4,s4,0xc
90003ccc:	01f6db13          	srli	s6,a3,0x1f
90003cd0:	e80710e3          	bnez	a4,90003b50 <__muldf3+0x8c>
90003cd4:	00ca67b3          	or	a5,s4,a2
90003cd8:	06078463          	beqz	a5,90003d40 <__muldf3+0x27c>
90003cdc:	2e0a0e63          	beqz	s4,90003fd8 <__muldf3+0x514>
90003ce0:	000a0513          	mv	a0,s4
90003ce4:	00c12423          	sw	a2,8(sp)
90003ce8:	550010ef          	jal	ra,90005238 <__clzsi2>
90003cec:	00812603          	lw	a2,8(sp)
90003cf0:	00050713          	mv	a4,a0
90003cf4:	ff550693          	addi	a3,a0,-11
90003cf8:	01d00793          	li	a5,29
90003cfc:	ff870593          	addi	a1,a4,-8
90003d00:	40d787b3          	sub	a5,a5,a3
90003d04:	00ba1a33          	sll	s4,s4,a1
90003d08:	00f657b3          	srl	a5,a2,a5
90003d0c:	0147e7b3          	or	a5,a5,s4
90003d10:	00b615b3          	sll	a1,a2,a1
90003d14:	40e90933          	sub	s2,s2,a4
90003d18:	c0d90913          	addi	s2,s2,-1011
90003d1c:	00000893          	li	a7,0
90003d20:	e5dff06f          	j	90003b7c <__muldf3+0xb8>
90003d24:	00a9e433          	or	s0,s3,a0
90003d28:	02041463          	bnez	s0,90003d50 <__muldf3+0x28c>
90003d2c:	00800993          	li	s3,8
90003d30:	00000493          	li	s1,0
90003d34:	7ff00913          	li	s2,2047
90003d38:	00200b93          	li	s7,2
90003d3c:	df9ff06f          	j	90003b34 <__muldf3+0x70>
90003d40:	0019e993          	ori	s3,s3,1
90003d44:	00000593          	li	a1,0
90003d48:	00100893          	li	a7,1
90003d4c:	e31ff06f          	j	90003b7c <__muldf3+0xb8>
90003d50:	00098413          	mv	s0,s3
90003d54:	00050493          	mv	s1,a0
90003d58:	00c00993          	li	s3,12
90003d5c:	7ff00913          	li	s2,2047
90003d60:	00300b93          	li	s7,3
90003d64:	dd1ff06f          	j	90003b34 <__muldf3+0x70>
90003d68:	00400993          	li	s3,4
90003d6c:	00000493          	li	s1,0
90003d70:	00000913          	li	s2,0
90003d74:	00100b93          	li	s7,1
90003d78:	dbdff06f          	j	90003b34 <__muldf3+0x70>
90003d7c:	0039e993          	ori	s3,s3,3
90003d80:	000a0793          	mv	a5,s4
90003d84:	00300893          	li	a7,3
90003d88:	df5ff06f          	j	90003b7c <__muldf3+0xb8>
90003d8c:	00200793          	li	a5,2
90003d90:	000a8513          	mv	a0,s5
90003d94:	eafb94e3          	bne	s7,a5,90003c3c <__muldf3+0x178>
90003d98:	00050713          	mv	a4,a0
90003d9c:	7ff00793          	li	a5,2047
90003da0:	00000413          	li	s0,0
90003da4:	00000493          	li	s1,0
90003da8:	e31ff06f          	j	90003bd8 <__muldf3+0x114>
90003dac:	00010eb7          	lui	t4,0x10
90003db0:	fffe8613          	addi	a2,t4,-1 # ffff <__stack_size+0xdfff>
90003db4:	0104d693          	srli	a3,s1,0x10
90003db8:	0105de13          	srli	t3,a1,0x10
90003dbc:	00c4f4b3          	and	s1,s1,a2
90003dc0:	00c5f5b3          	and	a1,a1,a2
90003dc4:	02958633          	mul	a2,a1,s1
90003dc8:	02b68333          	mul	t1,a3,a1
90003dcc:	01065893          	srli	a7,a2,0x10
90003dd0:	029e0533          	mul	a0,t3,s1
90003dd4:	00650533          	add	a0,a0,t1
90003dd8:	00a888b3          	add	a7,a7,a0
90003ddc:	03c682b3          	mul	t0,a3,t3
90003de0:	0068f463          	bgeu	a7,t1,90003de8 <__muldf3+0x324>
90003de4:	01d282b3          	add	t0,t0,t4
90003de8:	00010fb7          	lui	t6,0x10
90003dec:	ffff8313          	addi	t1,t6,-1 # ffff <__stack_size+0xdfff>
90003df0:	0067f533          	and	a0,a5,t1
90003df4:	0107d393          	srli	t2,a5,0x10
90003df8:	0068f7b3          	and	a5,a7,t1
90003dfc:	01079793          	slli	a5,a5,0x10
90003e00:	00667333          	and	t1,a2,t1
90003e04:	00678333          	add	t1,a5,t1
90003e08:	02950633          	mul	a2,a0,s1
90003e0c:	0108d893          	srli	a7,a7,0x10
90003e10:	02a687b3          	mul	a5,a3,a0
90003e14:	01065f13          	srli	t5,a2,0x10
90003e18:	029384b3          	mul	s1,t2,s1
90003e1c:	00f484b3          	add	s1,s1,a5
90003e20:	009f04b3          	add	s1,t5,s1
90003e24:	02768eb3          	mul	t4,a3,t2
90003e28:	00f4f463          	bgeu	s1,a5,90003e30 <__muldf3+0x36c>
90003e2c:	01fe8eb3          	add	t4,t4,t6
90003e30:	00010a37          	lui	s4,0x10
90003e34:	fffa0793          	addi	a5,s4,-1 # ffff <__stack_size+0xdfff>
90003e38:	01045f93          	srli	t6,s0,0x10
90003e3c:	00f476b3          	and	a3,s0,a5
90003e40:	00f4f9b3          	and	s3,s1,a5
90003e44:	00f67633          	and	a2,a2,a5
90003e48:	0104d493          	srli	s1,s1,0x10
90003e4c:	02d58433          	mul	s0,a1,a3
90003e50:	01099993          	slli	s3,s3,0x10
90003e54:	01d48f33          	add	t5,s1,t4
90003e58:	00c989b3          	add	s3,s3,a2
90003e5c:	013888b3          	add	a7,a7,s3
90003e60:	02de07b3          	mul	a5,t3,a3
90003e64:	01045e93          	srli	t4,s0,0x10
90003e68:	02bf85b3          	mul	a1,t6,a1
90003e6c:	00b787b3          	add	a5,a5,a1
90003e70:	00fe8eb3          	add	t4,t4,a5
90003e74:	03fe0e33          	mul	t3,t3,t6
90003e78:	00bef463          	bgeu	t4,a1,90003e80 <__muldf3+0x3bc>
90003e7c:	014e0e33          	add	t3,t3,s4
90003e80:	000107b7          	lui	a5,0x10
90003e84:	fff78593          	addi	a1,a5,-1 # ffff <__stack_size+0xdfff>
90003e88:	00bef633          	and	a2,t4,a1
90003e8c:	00b47433          	and	s0,s0,a1
90003e90:	01061613          	slli	a2,a2,0x10
90003e94:	00860633          	add	a2,a2,s0
90003e98:	010ede93          	srli	t4,t4,0x10
90003e9c:	02d505b3          	mul	a1,a0,a3
90003ea0:	01ce8e33          	add	t3,t4,t3
90003ea4:	02af8533          	mul	a0,t6,a0
90003ea8:	0105d413          	srli	s0,a1,0x10
90003eac:	02d386b3          	mul	a3,t2,a3
90003eb0:	00a686b3          	add	a3,a3,a0
90003eb4:	00d406b3          	add	a3,s0,a3
90003eb8:	03f38fb3          	mul	t6,t2,t6
90003ebc:	00a6f463          	bgeu	a3,a0,90003ec4 <__muldf3+0x400>
90003ec0:	00ff8fb3          	add	t6,t6,a5
90003ec4:	00010537          	lui	a0,0x10
90003ec8:	fff50513          	addi	a0,a0,-1 # ffff <__stack_size+0xdfff>
90003ecc:	00a6f7b3          	and	a5,a3,a0
90003ed0:	01079793          	slli	a5,a5,0x10
90003ed4:	00a5f533          	and	a0,a1,a0
90003ed8:	00a787b3          	add	a5,a5,a0
90003edc:	005885b3          	add	a1,a7,t0
90003ee0:	0135b9b3          	sltu	s3,a1,s3
90003ee4:	01e787b3          	add	a5,a5,t5
90003ee8:	00c585b3          	add	a1,a1,a2
90003eec:	01378433          	add	s0,a5,s3
90003ef0:	00c5b633          	sltu	a2,a1,a2
90003ef4:	01c40eb3          	add	t4,s0,t3
90003ef8:	00ce8533          	add	a0,t4,a2
90003efc:	01343433          	sltu	s0,s0,s3
90003f00:	01e7b7b3          	sltu	a5,a5,t5
90003f04:	0087e7b3          	or	a5,a5,s0
90003f08:	01cebe33          	sltu	t3,t4,t3
90003f0c:	0106d413          	srli	s0,a3,0x10
90003f10:	00c53633          	sltu	a2,a0,a2
90003f14:	00878433          	add	s0,a5,s0
90003f18:	00ce6633          	or	a2,t3,a2
90003f1c:	00959493          	slli	s1,a1,0x9
90003f20:	00c40433          	add	s0,s0,a2
90003f24:	01f40433          	add	s0,s0,t6
90003f28:	0064e4b3          	or	s1,s1,t1
90003f2c:	00941413          	slli	s0,s0,0x9
90003f30:	01755693          	srli	a3,a0,0x17
90003f34:	009034b3          	snez	s1,s1
90003f38:	0175d593          	srli	a1,a1,0x17
90003f3c:	00951793          	slli	a5,a0,0x9
90003f40:	00b4e4b3          	or	s1,s1,a1
90003f44:	00d46433          	or	s0,s0,a3
90003f48:	00f4e4b3          	or	s1,s1,a5
90003f4c:	00741793          	slli	a5,s0,0x7
90003f50:	0207d063          	bgez	a5,90003f70 <__muldf3+0x4ac>
90003f54:	0014d793          	srli	a5,s1,0x1
90003f58:	0014f493          	andi	s1,s1,1
90003f5c:	01f41693          	slli	a3,s0,0x1f
90003f60:	0097e4b3          	or	s1,a5,s1
90003f64:	00d4e4b3          	or	s1,s1,a3
90003f68:	00145413          	srli	s0,s0,0x1
90003f6c:	00080913          	mv	s2,a6
90003f70:	3ff90793          	addi	a5,s2,1023
90003f74:	0cf05063          	blez	a5,90004034 <__muldf3+0x570>
90003f78:	0074f693          	andi	a3,s1,7
90003f7c:	02068063          	beqz	a3,90003f9c <__muldf3+0x4d8>
90003f80:	00f4f693          	andi	a3,s1,15
90003f84:	00400613          	li	a2,4
90003f88:	00c68a63          	beq	a3,a2,90003f9c <__muldf3+0x4d8>
90003f8c:	00448693          	addi	a3,s1,4
90003f90:	0096b4b3          	sltu	s1,a3,s1
90003f94:	00940433          	add	s0,s0,s1
90003f98:	00068493          	mv	s1,a3
90003f9c:	00741693          	slli	a3,s0,0x7
90003fa0:	0006da63          	bgez	a3,90003fb4 <__muldf3+0x4f0>
90003fa4:	ff0007b7          	lui	a5,0xff000
90003fa8:	fff78793          	addi	a5,a5,-1 # feffffff <_data_lma+0x6effac97>
90003fac:	00f47433          	and	s0,s0,a5
90003fb0:	40090793          	addi	a5,s2,1024
90003fb4:	7fe00693          	li	a3,2046
90003fb8:	14f6ca63          	blt	a3,a5,9000410c <__muldf3+0x648>
90003fbc:	0034d693          	srli	a3,s1,0x3
90003fc0:	01d41493          	slli	s1,s0,0x1d
90003fc4:	00941413          	slli	s0,s0,0x9
90003fc8:	00d4e4b3          	or	s1,s1,a3
90003fcc:	00c45413          	srli	s0,s0,0xc
90003fd0:	7ff7f793          	andi	a5,a5,2047
90003fd4:	c05ff06f          	j	90003bd8 <__muldf3+0x114>
90003fd8:	00060513          	mv	a0,a2
90003fdc:	00c12423          	sw	a2,8(sp)
90003fe0:	258010ef          	jal	ra,90005238 <__clzsi2>
90003fe4:	01550693          	addi	a3,a0,21
90003fe8:	01c00793          	li	a5,28
90003fec:	02050713          	addi	a4,a0,32
90003ff0:	00812603          	lw	a2,8(sp)
90003ff4:	d0d7d2e3          	bge	a5,a3,90003cf8 <__muldf3+0x234>
90003ff8:	ff850513          	addi	a0,a0,-8
90003ffc:	00a617b3          	sll	a5,a2,a0
90004000:	00000593          	li	a1,0
90004004:	d11ff06f          	j	90003d14 <__muldf3+0x250>
90004008:	230010ef          	jal	ra,90005238 <__clzsi2>
9000400c:	01550713          	addi	a4,a0,21
90004010:	01c00593          	li	a1,28
90004014:	02050793          	addi	a5,a0,32
90004018:	00812603          	lw	a2,8(sp)
9000401c:	00c12683          	lw	a3,12(sp)
90004020:	c6e5d6e3          	bge	a1,a4,90003c8c <__muldf3+0x1c8>
90004024:	ff850513          	addi	a0,a0,-8
90004028:	00aa1433          	sll	s0,s4,a0
9000402c:	00000493          	li	s1,0
90004030:	c79ff06f          	j	90003ca8 <__muldf3+0x1e4>
90004034:	00100693          	li	a3,1
90004038:	40f686b3          	sub	a3,a3,a5
9000403c:	06079063          	bnez	a5,9000409c <__muldf3+0x5d8>
90004040:	41e90913          	addi	s2,s2,1054
90004044:	012497b3          	sll	a5,s1,s2
90004048:	00d4d4b3          	srl	s1,s1,a3
9000404c:	01241933          	sll	s2,s0,s2
90004050:	00f037b3          	snez	a5,a5
90004054:	009964b3          	or	s1,s2,s1
90004058:	00f4e4b3          	or	s1,s1,a5
9000405c:	0074f793          	andi	a5,s1,7
90004060:	00d456b3          	srl	a3,s0,a3
90004064:	02078063          	beqz	a5,90004084 <__muldf3+0x5c0>
90004068:	00f4f793          	andi	a5,s1,15
9000406c:	00400613          	li	a2,4
90004070:	00c78a63          	beq	a5,a2,90004084 <__muldf3+0x5c0>
90004074:	00448793          	addi	a5,s1,4
90004078:	0097b4b3          	sltu	s1,a5,s1
9000407c:	009686b3          	add	a3,a3,s1
90004080:	00078493          	mv	s1,a5
90004084:	00869793          	slli	a5,a3,0x8
90004088:	0607d463          	bgez	a5,900040f0 <__muldf3+0x62c>
9000408c:	00100793          	li	a5,1
90004090:	00000413          	li	s0,0
90004094:	00000493          	li	s1,0
90004098:	b41ff06f          	j	90003bd8 <__muldf3+0x114>
9000409c:	03800613          	li	a2,56
900040a0:	bad648e3          	blt	a2,a3,90003c50 <__muldf3+0x18c>
900040a4:	01f00613          	li	a2,31
900040a8:	f8d65ce3          	bge	a2,a3,90004040 <__muldf3+0x57c>
900040ac:	fe100613          	li	a2,-31
900040b0:	40f607b3          	sub	a5,a2,a5
900040b4:	02000593          	li	a1,32
900040b8:	00f45633          	srl	a2,s0,a5
900040bc:	00b68863          	beq	a3,a1,900040cc <__muldf3+0x608>
900040c0:	43e90913          	addi	s2,s2,1086
900040c4:	012417b3          	sll	a5,s0,s2
900040c8:	00f4e4b3          	or	s1,s1,a5
900040cc:	009034b3          	snez	s1,s1
900040d0:	00c4e4b3          	or	s1,s1,a2
900040d4:	0074f693          	andi	a3,s1,7
900040d8:	00000413          	li	s0,0
900040dc:	02068063          	beqz	a3,900040fc <__muldf3+0x638>
900040e0:	00f4f793          	andi	a5,s1,15
900040e4:	00400613          	li	a2,4
900040e8:	00000693          	li	a3,0
900040ec:	f8c794e3          	bne	a5,a2,90004074 <__muldf3+0x5b0>
900040f0:	00969413          	slli	s0,a3,0x9
900040f4:	00c45413          	srli	s0,s0,0xc
900040f8:	01d69693          	slli	a3,a3,0x1d
900040fc:	0034d493          	srli	s1,s1,0x3
90004100:	00d4e4b3          	or	s1,s1,a3
90004104:	00000793          	li	a5,0
90004108:	ad1ff06f          	j	90003bd8 <__muldf3+0x114>
9000410c:	7ff00793          	li	a5,2047
90004110:	00000413          	li	s0,0
90004114:	00000493          	li	s1,0
90004118:	ac1ff06f          	j	90003bd8 <__muldf3+0x114>
9000411c:	00080913          	mv	s2,a6
90004120:	e51ff06f          	j	90003f70 <__muldf3+0x4ac>

90004124 <__subdf3>:
90004124:	00100737          	lui	a4,0x100
90004128:	fff70713          	addi	a4,a4,-1 # fffff <__stack_size+0xfdfff>
9000412c:	fe010113          	addi	sp,sp,-32
90004130:	00b77333          	and	t1,a4,a1
90004134:	0146d893          	srli	a7,a3,0x14
90004138:	00d77733          	and	a4,a4,a3
9000413c:	01d65e93          	srli	t4,a2,0x1d
90004140:	00812c23          	sw	s0,24(sp)
90004144:	00912a23          	sw	s1,20(sp)
90004148:	00331313          	slli	t1,t1,0x3
9000414c:	0145d493          	srli	s1,a1,0x14
90004150:	01d55793          	srli	a5,a0,0x1d
90004154:	00371713          	slli	a4,a4,0x3
90004158:	00112e23          	sw	ra,28(sp)
9000415c:	01212823          	sw	s2,16(sp)
90004160:	01312623          	sw	s3,12(sp)
90004164:	7ff8f893          	andi	a7,a7,2047
90004168:	7ff00e13          	li	t3,2047
9000416c:	00eee733          	or	a4,t4,a4
90004170:	7ff4f493          	andi	s1,s1,2047
90004174:	01f5d413          	srli	s0,a1,0x1f
90004178:	0067e333          	or	t1,a5,t1
9000417c:	00351f13          	slli	t5,a0,0x3
90004180:	01f6d693          	srli	a3,a3,0x1f
90004184:	00361e93          	slli	t4,a2,0x3
90004188:	1dc88663          	beq	a7,t3,90004354 <__subdf3+0x230>
9000418c:	0016c693          	xori	a3,a3,1
90004190:	411485b3          	sub	a1,s1,a7
90004194:	16d40863          	beq	s0,a3,90004304 <__subdf3+0x1e0>
90004198:	1cb05863          	blez	a1,90004368 <__subdf3+0x244>
9000419c:	20088463          	beqz	a7,900043a4 <__subdf3+0x280>
900041a0:	008007b7          	lui	a5,0x800
900041a4:	00f76733          	or	a4,a4,a5
900041a8:	67c48a63          	beq	s1,t3,9000481c <__subdf3+0x6f8>
900041ac:	03800793          	li	a5,56
900041b0:	3eb7c263          	blt	a5,a1,90004594 <__subdf3+0x470>
900041b4:	01f00793          	li	a5,31
900041b8:	54b7ca63          	blt	a5,a1,9000470c <__subdf3+0x5e8>
900041bc:	02000793          	li	a5,32
900041c0:	40b787b3          	sub	a5,a5,a1
900041c4:	00bed9b3          	srl	s3,t4,a1
900041c8:	00f71833          	sll	a6,a4,a5
900041cc:	00fe9eb3          	sll	t4,t4,a5
900041d0:	01386833          	or	a6,a6,s3
900041d4:	00b75733          	srl	a4,a4,a1
900041d8:	01d039b3          	snez	s3,t4
900041dc:	01386833          	or	a6,a6,s3
900041e0:	40e30333          	sub	t1,t1,a4
900041e4:	410f09b3          	sub	s3,t5,a6
900041e8:	013f37b3          	sltu	a5,t5,s3
900041ec:	40f30633          	sub	a2,t1,a5
900041f0:	00861793          	slli	a5,a2,0x8
900041f4:	2a07d863          	bgez	a5,900044a4 <__subdf3+0x380>
900041f8:	00800937          	lui	s2,0x800
900041fc:	fff90913          	addi	s2,s2,-1 # 7fffff <__stack_size+0x7fdfff>
90004200:	01267933          	and	s2,a2,s2
90004204:	36090663          	beqz	s2,90004570 <__subdf3+0x44c>
90004208:	00090513          	mv	a0,s2
9000420c:	02c010ef          	jal	ra,90005238 <__clzsi2>
90004210:	ff850713          	addi	a4,a0,-8
90004214:	02000793          	li	a5,32
90004218:	40e787b3          	sub	a5,a5,a4
9000421c:	00f9d7b3          	srl	a5,s3,a5
90004220:	00e91633          	sll	a2,s2,a4
90004224:	00c7e7b3          	or	a5,a5,a2
90004228:	00e999b3          	sll	s3,s3,a4
9000422c:	32974463          	blt	a4,s1,90004554 <__subdf3+0x430>
90004230:	40970733          	sub	a4,a4,s1
90004234:	00170613          	addi	a2,a4,1
90004238:	01f00693          	li	a3,31
9000423c:	44c6ca63          	blt	a3,a2,90004690 <__subdf3+0x56c>
90004240:	02000713          	li	a4,32
90004244:	40c70733          	sub	a4,a4,a2
90004248:	00c9d6b3          	srl	a3,s3,a2
9000424c:	00e99833          	sll	a6,s3,a4
90004250:	00e79733          	sll	a4,a5,a4
90004254:	00d76733          	or	a4,a4,a3
90004258:	01003833          	snez	a6,a6
9000425c:	010769b3          	or	s3,a4,a6
90004260:	00c7d633          	srl	a2,a5,a2
90004264:	00000493          	li	s1,0
90004268:	0079f793          	andi	a5,s3,7
9000426c:	02078063          	beqz	a5,9000428c <__subdf3+0x168>
90004270:	00f9f693          	andi	a3,s3,15
90004274:	00400793          	li	a5,4
90004278:	00f68a63          	beq	a3,a5,9000428c <__subdf3+0x168>
9000427c:	00498693          	addi	a3,s3,4
90004280:	0136b833          	sltu	a6,a3,s3
90004284:	01060633          	add	a2,a2,a6
90004288:	00068993          	mv	s3,a3
9000428c:	00861793          	slli	a5,a2,0x8
90004290:	2007de63          	bgez	a5,900044ac <__subdf3+0x388>
90004294:	00148713          	addi	a4,s1,1
90004298:	7ff00793          	li	a5,2047
9000429c:	00147413          	andi	s0,s0,1
900042a0:	26f70463          	beq	a4,a5,90004508 <__subdf3+0x3e4>
900042a4:	ff8007b7          	lui	a5,0xff800
900042a8:	fff78793          	addi	a5,a5,-1 # ff7fffff <_data_lma+0x6f7fac97>
900042ac:	00f677b3          	and	a5,a2,a5
900042b0:	01d79813          	slli	a6,a5,0x1d
900042b4:	0039d993          	srli	s3,s3,0x3
900042b8:	00979793          	slli	a5,a5,0x9
900042bc:	01386833          	or	a6,a6,s3
900042c0:	00c7d793          	srli	a5,a5,0xc
900042c4:	7ff77713          	andi	a4,a4,2047
900042c8:	00c79693          	slli	a3,a5,0xc
900042cc:	01471713          	slli	a4,a4,0x14
900042d0:	00c6d693          	srli	a3,a3,0xc
900042d4:	01f41413          	slli	s0,s0,0x1f
900042d8:	00e6e6b3          	or	a3,a3,a4
900042dc:	0086e6b3          	or	a3,a3,s0
900042e0:	01c12083          	lw	ra,28(sp)
900042e4:	01812403          	lw	s0,24(sp)
900042e8:	01412483          	lw	s1,20(sp)
900042ec:	01012903          	lw	s2,16(sp)
900042f0:	00c12983          	lw	s3,12(sp)
900042f4:	00080513          	mv	a0,a6
900042f8:	00068593          	mv	a1,a3
900042fc:	02010113          	addi	sp,sp,32
90004300:	00008067          	ret
90004304:	0ab05e63          	blez	a1,900043c0 <__subdf3+0x29c>
90004308:	14088a63          	beqz	a7,9000445c <__subdf3+0x338>
9000430c:	008007b7          	lui	a5,0x800
90004310:	00f76733          	or	a4,a4,a5
90004314:	33c48c63          	beq	s1,t3,9000464c <__subdf3+0x528>
90004318:	03800793          	li	a5,56
9000431c:	1cb7c063          	blt	a5,a1,900044dc <__subdf3+0x3b8>
90004320:	01f00793          	li	a5,31
90004324:	44b7da63          	bge	a5,a1,90004778 <__subdf3+0x654>
90004328:	fe058813          	addi	a6,a1,-32
9000432c:	02000793          	li	a5,32
90004330:	010759b3          	srl	s3,a4,a6
90004334:	00f58a63          	beq	a1,a5,90004348 <__subdf3+0x224>
90004338:	04000793          	li	a5,64
9000433c:	40b785b3          	sub	a1,a5,a1
90004340:	00b71733          	sll	a4,a4,a1
90004344:	00eeeeb3          	or	t4,t4,a4
90004348:	01d03833          	snez	a6,t4
9000434c:	01386833          	or	a6,a6,s3
90004350:	1940006f          	j	900044e4 <__subdf3+0x3c0>
90004354:	01d767b3          	or	a5,a4,t4
90004358:	80148593          	addi	a1,s1,-2047
9000435c:	00079463          	bnez	a5,90004364 <__subdf3+0x240>
90004360:	0016c693          	xori	a3,a3,1
90004364:	04d40e63          	beq	s0,a3,900043c0 <__subdf3+0x29c>
90004368:	08059a63          	bnez	a1,900043fc <__subdf3+0x2d8>
9000436c:	00148793          	addi	a5,s1,1
90004370:	7fe7f793          	andi	a5,a5,2046
90004374:	24079263          	bnez	a5,900045b8 <__subdf3+0x494>
90004378:	01e367b3          	or	a5,t1,t5
9000437c:	01d76833          	or	a6,a4,t4
90004380:	18049c63          	bnez	s1,90004518 <__subdf3+0x3f4>
90004384:	46078063          	beqz	a5,900047e4 <__subdf3+0x6c0>
90004388:	4c081e63          	bnez	a6,90004864 <__subdf3+0x740>
9000438c:	00351813          	slli	a6,a0,0x3
90004390:	01d31693          	slli	a3,t1,0x1d
90004394:	00385813          	srli	a6,a6,0x3
90004398:	0106e833          	or	a6,a3,a6
9000439c:	00335793          	srli	a5,t1,0x3
900043a0:	1280006f          	j	900044c8 <__subdf3+0x3a4>
900043a4:	01d767b3          	or	a5,a4,t4
900043a8:	1e078c63          	beqz	a5,900045a0 <__subdf3+0x47c>
900043ac:	fff58793          	addi	a5,a1,-1
900043b0:	44078a63          	beqz	a5,90004804 <__subdf3+0x6e0>
900043b4:	29c58c63          	beq	a1,t3,9000464c <__subdf3+0x528>
900043b8:	00078593          	mv	a1,a5
900043bc:	df1ff06f          	j	900041ac <__subdf3+0x88>
900043c0:	22059263          	bnez	a1,900045e4 <__subdf3+0x4c0>
900043c4:	00148693          	addi	a3,s1,1
900043c8:	7fe6f793          	andi	a5,a3,2046
900043cc:	0a079663          	bnez	a5,90004478 <__subdf3+0x354>
900043d0:	01e367b3          	or	a5,t1,t5
900043d4:	3e049663          	bnez	s1,900047c0 <__subdf3+0x69c>
900043d8:	50078863          	beqz	a5,900048e8 <__subdf3+0x7c4>
900043dc:	01d767b3          	or	a5,a4,t4
900043e0:	52079063          	bnez	a5,90004900 <__subdf3+0x7dc>
900043e4:	00351513          	slli	a0,a0,0x3
900043e8:	01d31813          	slli	a6,t1,0x1d
900043ec:	00355513          	srli	a0,a0,0x3
900043f0:	00a86833          	or	a6,a6,a0
900043f4:	00335793          	srli	a5,t1,0x3
900043f8:	0d00006f          	j	900044c8 <__subdf3+0x3a4>
900043fc:	409885b3          	sub	a1,a7,s1
90004400:	26049263          	bnez	s1,90004664 <__subdf3+0x540>
90004404:	01e367b3          	or	a5,t1,t5
90004408:	38078e63          	beqz	a5,900047a4 <__subdf3+0x680>
9000440c:	fff58793          	addi	a5,a1,-1
90004410:	4a078e63          	beqz	a5,900048cc <__subdf3+0x7a8>
90004414:	7ff00513          	li	a0,2047
90004418:	24a58e63          	beq	a1,a0,90004674 <__subdf3+0x550>
9000441c:	00078593          	mv	a1,a5
90004420:	03800793          	li	a5,56
90004424:	30b7ca63          	blt	a5,a1,90004738 <__subdf3+0x614>
90004428:	01f00793          	li	a5,31
9000442c:	46b7ca63          	blt	a5,a1,900048a0 <__subdf3+0x77c>
90004430:	02000793          	li	a5,32
90004434:	40b787b3          	sub	a5,a5,a1
90004438:	00f31833          	sll	a6,t1,a5
9000443c:	00bf5633          	srl	a2,t5,a1
90004440:	00ff17b3          	sll	a5,t5,a5
90004444:	00c86833          	or	a6,a6,a2
90004448:	00f039b3          	snez	s3,a5
9000444c:	00b35333          	srl	t1,t1,a1
90004450:	01386833          	or	a6,a6,s3
90004454:	40670733          	sub	a4,a4,t1
90004458:	2e80006f          	j	90004740 <__subdf3+0x61c>
9000445c:	01d767b3          	or	a5,a4,t4
90004460:	14078063          	beqz	a5,900045a0 <__subdf3+0x47c>
90004464:	fff58793          	addi	a5,a1,-1
90004468:	24078e63          	beqz	a5,900046c4 <__subdf3+0x5a0>
9000446c:	37c58063          	beq	a1,t3,900047cc <__subdf3+0x6a8>
90004470:	00078593          	mv	a1,a5
90004474:	ea5ff06f          	j	90004318 <__subdf3+0x1f4>
90004478:	7ff00793          	li	a5,2047
9000447c:	08f68463          	beq	a3,a5,90004504 <__subdf3+0x3e0>
90004480:	01df0eb3          	add	t4,t5,t4
90004484:	01eeb633          	sltu	a2,t4,t5
90004488:	00e307b3          	add	a5,t1,a4
9000448c:	00c787b3          	add	a5,a5,a2
90004490:	01f79813          	slli	a6,a5,0x1f
90004494:	001ede93          	srli	t4,t4,0x1
90004498:	01d869b3          	or	s3,a6,t4
9000449c:	0017d613          	srli	a2,a5,0x1
900044a0:	00068493          	mv	s1,a3
900044a4:	0079f793          	andi	a5,s3,7
900044a8:	dc0794e3          	bnez	a5,90004270 <__subdf3+0x14c>
900044ac:	01d61793          	slli	a5,a2,0x1d
900044b0:	0039d813          	srli	a6,s3,0x3
900044b4:	00f86833          	or	a6,a6,a5
900044b8:	00048593          	mv	a1,s1
900044bc:	00365793          	srli	a5,a2,0x3
900044c0:	7ff00713          	li	a4,2047
900044c4:	06e58a63          	beq	a1,a4,90004538 <__subdf3+0x414>
900044c8:	00c79793          	slli	a5,a5,0xc
900044cc:	00c7d793          	srli	a5,a5,0xc
900044d0:	7ff5f713          	andi	a4,a1,2047
900044d4:	00147413          	andi	s0,s0,1
900044d8:	df1ff06f          	j	900042c8 <__subdf3+0x1a4>
900044dc:	01d76733          	or	a4,a4,t4
900044e0:	00e03833          	snez	a6,a4
900044e4:	01e809b3          	add	s3,a6,t5
900044e8:	01e9b7b3          	sltu	a5,s3,t5
900044ec:	00678633          	add	a2,a5,t1
900044f0:	00861793          	slli	a5,a2,0x8
900044f4:	fa07d8e3          	bgez	a5,900044a4 <__subdf3+0x380>
900044f8:	00148493          	addi	s1,s1,1
900044fc:	7ff00793          	li	a5,2047
90004500:	1ef49263          	bne	s1,a5,900046e4 <__subdf3+0x5c0>
90004504:	00147413          	andi	s0,s0,1
90004508:	7ff00713          	li	a4,2047
9000450c:	00000793          	li	a5,0
90004510:	00000813          	li	a6,0
90004514:	db5ff06f          	j	900042c8 <__subdf3+0x1a4>
90004518:	12079863          	bnez	a5,90004648 <__subdf3+0x524>
9000451c:	46080063          	beqz	a6,9000497c <__subdf3+0x858>
90004520:	00361813          	slli	a6,a2,0x3
90004524:	01d71793          	slli	a5,a4,0x1d
90004528:	00385813          	srli	a6,a6,0x3
9000452c:	00f86833          	or	a6,a6,a5
90004530:	00068413          	mv	s0,a3
90004534:	00375793          	srli	a5,a4,0x3
90004538:	00f867b3          	or	a5,a6,a5
9000453c:	fc0784e3          	beqz	a5,90004504 <__subdf3+0x3e0>
90004540:	00000413          	li	s0,0
90004544:	7ff00713          	li	a4,2047
90004548:	000807b7          	lui	a5,0x80
9000454c:	00000813          	li	a6,0
90004550:	d79ff06f          	j	900042c8 <__subdf3+0x1a4>
90004554:	ff800637          	lui	a2,0xff800
90004558:	fff60613          	addi	a2,a2,-1 # ff7fffff <_data_lma+0x6f7fac97>
9000455c:	00c7f633          	and	a2,a5,a2
90004560:	0079f793          	andi	a5,s3,7
90004564:	40e484b3          	sub	s1,s1,a4
90004568:	d00794e3          	bnez	a5,90004270 <__subdf3+0x14c>
9000456c:	f41ff06f          	j	900044ac <__subdf3+0x388>
90004570:	00098513          	mv	a0,s3
90004574:	4c5000ef          	jal	ra,90005238 <__clzsi2>
90004578:	01850713          	addi	a4,a0,24
9000457c:	01f00793          	li	a5,31
90004580:	c8e7dae3          	bge	a5,a4,90004214 <__subdf3+0xf0>
90004584:	ff850613          	addi	a2,a0,-8
90004588:	00c997b3          	sll	a5,s3,a2
9000458c:	00000993          	li	s3,0
90004590:	c9dff06f          	j	9000422c <__subdf3+0x108>
90004594:	01d76833          	or	a6,a4,t4
90004598:	01003833          	snez	a6,a6
9000459c:	c49ff06f          	j	900041e4 <__subdf3+0xc0>
900045a0:	00351813          	slli	a6,a0,0x3
900045a4:	01d31793          	slli	a5,t1,0x1d
900045a8:	00385813          	srli	a6,a6,0x3
900045ac:	00f86833          	or	a6,a6,a5
900045b0:	00335793          	srli	a5,t1,0x3
900045b4:	f0dff06f          	j	900044c0 <__subdf3+0x39c>
900045b8:	41df09b3          	sub	s3,t5,t4
900045bc:	40e30933          	sub	s2,t1,a4
900045c0:	013f3633          	sltu	a2,t5,s3
900045c4:	40c90933          	sub	s2,s2,a2
900045c8:	00891793          	slli	a5,s2,0x8
900045cc:	2607c463          	bltz	a5,90004834 <__subdf3+0x710>
900045d0:	0129e833          	or	a6,s3,s2
900045d4:	c20818e3          	bnez	a6,90004204 <__subdf3+0xe0>
900045d8:	00000793          	li	a5,0
900045dc:	00000413          	li	s0,0
900045e0:	ee9ff06f          	j	900044c8 <__subdf3+0x3a4>
900045e4:	409885b3          	sub	a1,a7,s1
900045e8:	16048863          	beqz	s1,90004758 <__subdf3+0x634>
900045ec:	008006b7          	lui	a3,0x800
900045f0:	7ff00793          	li	a5,2047
900045f4:	00d36333          	or	t1,t1,a3
900045f8:	24f88a63          	beq	a7,a5,9000484c <__subdf3+0x728>
900045fc:	03800793          	li	a5,56
90004600:	28b7ca63          	blt	a5,a1,90004894 <__subdf3+0x770>
90004604:	01f00793          	li	a5,31
90004608:	34b7c463          	blt	a5,a1,90004950 <__subdf3+0x82c>
9000460c:	02000793          	li	a5,32
90004610:	40b787b3          	sub	a5,a5,a1
90004614:	00f31833          	sll	a6,t1,a5
90004618:	00bf56b3          	srl	a3,t5,a1
9000461c:	00ff17b3          	sll	a5,t5,a5
90004620:	00d86833          	or	a6,a6,a3
90004624:	00f039b3          	snez	s3,a5
90004628:	00b35333          	srl	t1,t1,a1
9000462c:	01386833          	or	a6,a6,s3
90004630:	00670733          	add	a4,a4,t1
90004634:	01d809b3          	add	s3,a6,t4
90004638:	01d9b7b3          	sltu	a5,s3,t4
9000463c:	00e78633          	add	a2,a5,a4
90004640:	00088493          	mv	s1,a7
90004644:	eadff06f          	j	900044f0 <__subdf3+0x3cc>
90004648:	ee081ce3          	bnez	a6,90004540 <__subdf3+0x41c>
9000464c:	00351813          	slli	a6,a0,0x3
90004650:	01d31793          	slli	a5,t1,0x1d
90004654:	00385813          	srli	a6,a6,0x3
90004658:	00f86833          	or	a6,a6,a5
9000465c:	00335793          	srli	a5,t1,0x3
90004660:	ed9ff06f          	j	90004538 <__subdf3+0x414>
90004664:	00800537          	lui	a0,0x800
90004668:	7ff00793          	li	a5,2047
9000466c:	00a36333          	or	t1,t1,a0
90004670:	daf898e3          	bne	a7,a5,90004420 <__subdf3+0x2fc>
90004674:	00361613          	slli	a2,a2,0x3
90004678:	01d71813          	slli	a6,a4,0x1d
9000467c:	00365613          	srli	a2,a2,0x3
90004680:	00c86833          	or	a6,a6,a2
90004684:	00375793          	srli	a5,a4,0x3
90004688:	00068413          	mv	s0,a3
9000468c:	eadff06f          	j	90004538 <__subdf3+0x414>
90004690:	fe170713          	addi	a4,a4,-31
90004694:	02000693          	li	a3,32
90004698:	00e7d733          	srl	a4,a5,a4
9000469c:	00d60a63          	beq	a2,a3,900046b0 <__subdf3+0x58c>
900046a0:	04000693          	li	a3,64
900046a4:	40c68633          	sub	a2,a3,a2
900046a8:	00c79633          	sll	a2,a5,a2
900046ac:	00c9e9b3          	or	s3,s3,a2
900046b0:	01303833          	snez	a6,s3
900046b4:	00e869b3          	or	s3,a6,a4
900046b8:	00000613          	li	a2,0
900046bc:	00000493          	li	s1,0
900046c0:	de5ff06f          	j	900044a4 <__subdf3+0x380>
900046c4:	01df09b3          	add	s3,t5,t4
900046c8:	00e307b3          	add	a5,t1,a4
900046cc:	01e9bf33          	sltu	t5,s3,t5
900046d0:	01e78633          	add	a2,a5,t5
900046d4:	00861793          	slli	a5,a2,0x8
900046d8:	00100493          	li	s1,1
900046dc:	dc07d4e3          	bgez	a5,900044a4 <__subdf3+0x380>
900046e0:	00200493          	li	s1,2
900046e4:	ff8007b7          	lui	a5,0xff800
900046e8:	fff78793          	addi	a5,a5,-1 # ff7fffff <_data_lma+0x6f7fac97>
900046ec:	00f677b3          	and	a5,a2,a5
900046f0:	0019d713          	srli	a4,s3,0x1
900046f4:	0019f813          	andi	a6,s3,1
900046f8:	01076833          	or	a6,a4,a6
900046fc:	01f79993          	slli	s3,a5,0x1f
90004700:	0109e9b3          	or	s3,s3,a6
90004704:	0017d613          	srli	a2,a5,0x1
90004708:	b61ff06f          	j	90004268 <__subdf3+0x144>
9000470c:	fe058813          	addi	a6,a1,-32
90004710:	02000793          	li	a5,32
90004714:	010759b3          	srl	s3,a4,a6
90004718:	00f58a63          	beq	a1,a5,9000472c <__subdf3+0x608>
9000471c:	04000793          	li	a5,64
90004720:	40b785b3          	sub	a1,a5,a1
90004724:	00b71733          	sll	a4,a4,a1
90004728:	00eeeeb3          	or	t4,t4,a4
9000472c:	01d03833          	snez	a6,t4
90004730:	01386833          	or	a6,a6,s3
90004734:	ab1ff06f          	j	900041e4 <__subdf3+0xc0>
90004738:	01e36333          	or	t1,t1,t5
9000473c:	00603833          	snez	a6,t1
90004740:	410e89b3          	sub	s3,t4,a6
90004744:	013eb7b3          	sltu	a5,t4,s3
90004748:	40f70633          	sub	a2,a4,a5
9000474c:	00088493          	mv	s1,a7
90004750:	00068413          	mv	s0,a3
90004754:	a9dff06f          	j	900041f0 <__subdf3+0xcc>
90004758:	01e367b3          	or	a5,t1,t5
9000475c:	1c078863          	beqz	a5,9000492c <__subdf3+0x808>
90004760:	fff58793          	addi	a5,a1,-1
90004764:	22078463          	beqz	a5,9000498c <__subdf3+0x868>
90004768:	7ff00693          	li	a3,2047
9000476c:	0ed58063          	beq	a1,a3,9000484c <__subdf3+0x728>
90004770:	00078593          	mv	a1,a5
90004774:	e89ff06f          	j	900045fc <__subdf3+0x4d8>
90004778:	02000793          	li	a5,32
9000477c:	40b787b3          	sub	a5,a5,a1
90004780:	00bed9b3          	srl	s3,t4,a1
90004784:	00f71833          	sll	a6,a4,a5
90004788:	00fe9eb3          	sll	t4,t4,a5
9000478c:	01386833          	or	a6,a6,s3
90004790:	00b75733          	srl	a4,a4,a1
90004794:	01d039b3          	snez	s3,t4
90004798:	01386833          	or	a6,a6,s3
9000479c:	00e30333          	add	t1,t1,a4
900047a0:	d45ff06f          	j	900044e4 <__subdf3+0x3c0>
900047a4:	00361813          	slli	a6,a2,0x3
900047a8:	01d71793          	slli	a5,a4,0x1d
900047ac:	00385813          	srli	a6,a6,0x3
900047b0:	0107e833          	or	a6,a5,a6
900047b4:	00068413          	mv	s0,a3
900047b8:	00375793          	srli	a5,a4,0x3
900047bc:	d05ff06f          	j	900044c0 <__subdf3+0x39c>
900047c0:	08078663          	beqz	a5,9000484c <__subdf3+0x728>
900047c4:	01d76733          	or	a4,a4,t4
900047c8:	d6071ce3          	bnez	a4,90004540 <__subdf3+0x41c>
900047cc:	00351513          	slli	a0,a0,0x3
900047d0:	01d31813          	slli	a6,t1,0x1d
900047d4:	00355513          	srli	a0,a0,0x3
900047d8:	00a86833          	or	a6,a6,a0
900047dc:	00335793          	srli	a5,t1,0x3
900047e0:	d59ff06f          	j	90004538 <__subdf3+0x414>
900047e4:	de080ae3          	beqz	a6,900045d8 <__subdf3+0x4b4>
900047e8:	00361813          	slli	a6,a2,0x3
900047ec:	01d71793          	slli	a5,a4,0x1d
900047f0:	00385813          	srli	a6,a6,0x3
900047f4:	00f86833          	or	a6,a6,a5
900047f8:	00068413          	mv	s0,a3
900047fc:	00375793          	srli	a5,a4,0x3
90004800:	cc9ff06f          	j	900044c8 <__subdf3+0x3a4>
90004804:	41df09b3          	sub	s3,t5,t4
90004808:	40e307b3          	sub	a5,t1,a4
9000480c:	013f3f33          	sltu	t5,t5,s3
90004810:	41e78633          	sub	a2,a5,t5
90004814:	00100493          	li	s1,1
90004818:	9d9ff06f          	j	900041f0 <__subdf3+0xcc>
9000481c:	00351813          	slli	a6,a0,0x3
90004820:	01d31693          	slli	a3,t1,0x1d
90004824:	00385813          	srli	a6,a6,0x3
90004828:	0106e833          	or	a6,a3,a6
9000482c:	00335793          	srli	a5,t1,0x3
90004830:	d09ff06f          	j	90004538 <__subdf3+0x414>
90004834:	41ee89b3          	sub	s3,t4,t5
90004838:	40670633          	sub	a2,a4,t1
9000483c:	013eb933          	sltu	s2,t4,s3
90004840:	41260933          	sub	s2,a2,s2
90004844:	00068413          	mv	s0,a3
90004848:	9bdff06f          	j	90004204 <__subdf3+0xe0>
9000484c:	00361613          	slli	a2,a2,0x3
90004850:	01d71813          	slli	a6,a4,0x1d
90004854:	00365613          	srli	a2,a2,0x3
90004858:	00c86833          	or	a6,a6,a2
9000485c:	00375793          	srli	a5,a4,0x3
90004860:	cd9ff06f          	j	90004538 <__subdf3+0x414>
90004864:	41df09b3          	sub	s3,t5,t4
90004868:	40e307b3          	sub	a5,t1,a4
9000486c:	013f3633          	sltu	a2,t5,s3
90004870:	40c78633          	sub	a2,a5,a2
90004874:	00861793          	slli	a5,a2,0x8
90004878:	0c07d663          	bgez	a5,90004944 <__subdf3+0x820>
9000487c:	41ee89b3          	sub	s3,t4,t5
90004880:	406707b3          	sub	a5,a4,t1
90004884:	013ebeb3          	sltu	t4,t4,s3
90004888:	41d78633          	sub	a2,a5,t4
9000488c:	00068413          	mv	s0,a3
90004890:	9d9ff06f          	j	90004268 <__subdf3+0x144>
90004894:	01e36333          	or	t1,t1,t5
90004898:	00603833          	snez	a6,t1
9000489c:	d99ff06f          	j	90004634 <__subdf3+0x510>
900048a0:	fe058813          	addi	a6,a1,-32
900048a4:	02000793          	li	a5,32
900048a8:	010359b3          	srl	s3,t1,a6
900048ac:	00f58a63          	beq	a1,a5,900048c0 <__subdf3+0x79c>
900048b0:	04000793          	li	a5,64
900048b4:	40b785b3          	sub	a1,a5,a1
900048b8:	00b31333          	sll	t1,t1,a1
900048bc:	006f6f33          	or	t5,t5,t1
900048c0:	01e03833          	snez	a6,t5
900048c4:	01386833          	or	a6,a6,s3
900048c8:	e79ff06f          	j	90004740 <__subdf3+0x61c>
900048cc:	41ee89b3          	sub	s3,t4,t5
900048d0:	406707b3          	sub	a5,a4,t1
900048d4:	013ebeb3          	sltu	t4,t4,s3
900048d8:	41d78633          	sub	a2,a5,t4
900048dc:	00068413          	mv	s0,a3
900048e0:	00100493          	li	s1,1
900048e4:	90dff06f          	j	900041f0 <__subdf3+0xcc>
900048e8:	00361813          	slli	a6,a2,0x3
900048ec:	01d71793          	slli	a5,a4,0x1d
900048f0:	00385813          	srli	a6,a6,0x3
900048f4:	00f86833          	or	a6,a6,a5
900048f8:	00375793          	srli	a5,a4,0x3
900048fc:	bcdff06f          	j	900044c8 <__subdf3+0x3a4>
90004900:	01df09b3          	add	s3,t5,t4
90004904:	00e307b3          	add	a5,t1,a4
90004908:	01e9bf33          	sltu	t5,s3,t5
9000490c:	01e78633          	add	a2,a5,t5
90004910:	00861793          	slli	a5,a2,0x8
90004914:	b807d8e3          	bgez	a5,900044a4 <__subdf3+0x380>
90004918:	ff8007b7          	lui	a5,0xff800
9000491c:	fff78793          	addi	a5,a5,-1 # ff7fffff <_data_lma+0x6f7fac97>
90004920:	00f67633          	and	a2,a2,a5
90004924:	00100493          	li	s1,1
90004928:	b7dff06f          	j	900044a4 <__subdf3+0x380>
9000492c:	00361613          	slli	a2,a2,0x3
90004930:	01d71813          	slli	a6,a4,0x1d
90004934:	00365613          	srli	a2,a2,0x3
90004938:	00c86833          	or	a6,a6,a2
9000493c:	00375793          	srli	a5,a4,0x3
90004940:	b81ff06f          	j	900044c0 <__subdf3+0x39c>
90004944:	00c9e833          	or	a6,s3,a2
90004948:	c80808e3          	beqz	a6,900045d8 <__subdf3+0x4b4>
9000494c:	b59ff06f          	j	900044a4 <__subdf3+0x380>
90004950:	fe058813          	addi	a6,a1,-32
90004954:	02000793          	li	a5,32
90004958:	010359b3          	srl	s3,t1,a6
9000495c:	00f58a63          	beq	a1,a5,90004970 <__subdf3+0x84c>
90004960:	04000793          	li	a5,64
90004964:	40b785b3          	sub	a1,a5,a1
90004968:	00b31333          	sll	t1,t1,a1
9000496c:	006f6f33          	or	t5,t5,t1
90004970:	01e03833          	snez	a6,t5
90004974:	01386833          	or	a6,a6,s3
90004978:	cbdff06f          	j	90004634 <__subdf3+0x510>
9000497c:	00000413          	li	s0,0
90004980:	7ff00713          	li	a4,2047
90004984:	000807b7          	lui	a5,0x80
90004988:	941ff06f          	j	900042c8 <__subdf3+0x1a4>
9000498c:	01df09b3          	add	s3,t5,t4
90004990:	00e307b3          	add	a5,t1,a4
90004994:	01d9beb3          	sltu	t4,s3,t4
90004998:	01d78633          	add	a2,a5,t4
9000499c:	d39ff06f          	j	900046d4 <__subdf3+0x5b0>

900049a0 <__unorddf2>:
900049a0:	0145d713          	srli	a4,a1,0x14
900049a4:	001007b7          	lui	a5,0x100
900049a8:	fff78793          	addi	a5,a5,-1 # fffff <__stack_size+0xfdfff>
900049ac:	fff74713          	not	a4,a4
900049b0:	0146d813          	srli	a6,a3,0x14
900049b4:	00b7f5b3          	and	a1,a5,a1
900049b8:	00d7f7b3          	and	a5,a5,a3
900049bc:	01571693          	slli	a3,a4,0x15
900049c0:	7ff87813          	andi	a6,a6,2047
900049c4:	02068063          	beqz	a3,900049e4 <__unorddf2+0x44>
900049c8:	7ff00713          	li	a4,2047
900049cc:	00000513          	li	a0,0
900049d0:	00e80463          	beq	a6,a4,900049d8 <__unorddf2+0x38>
900049d4:	00008067          	ret
900049d8:	00c7e7b3          	or	a5,a5,a2
900049dc:	00f03533          	snez	a0,a5
900049e0:	00008067          	ret
900049e4:	00a5e5b3          	or	a1,a1,a0
900049e8:	00100513          	li	a0,1
900049ec:	fc058ee3          	beqz	a1,900049c8 <__unorddf2+0x28>
900049f0:	00008067          	ret

900049f4 <__fixdfsi>:
900049f4:	0145d793          	srli	a5,a1,0x14
900049f8:	001006b7          	lui	a3,0x100
900049fc:	fff68713          	addi	a4,a3,-1 # fffff <__stack_size+0xfdfff>
90004a00:	7ff7f793          	andi	a5,a5,2047
90004a04:	3fe00613          	li	a2,1022
90004a08:	00b77733          	and	a4,a4,a1
90004a0c:	01f5d593          	srli	a1,a1,0x1f
90004a10:	00f65e63          	bge	a2,a5,90004a2c <__fixdfsi+0x38>
90004a14:	41d00613          	li	a2,1053
90004a18:	00f65e63          	bge	a2,a5,90004a34 <__fixdfsi+0x40>
90004a1c:	80000537          	lui	a0,0x80000
90004a20:	fff54513          	not	a0,a0
90004a24:	00a58533          	add	a0,a1,a0
90004a28:	00008067          	ret
90004a2c:	00000513          	li	a0,0
90004a30:	00008067          	ret
90004a34:	43300613          	li	a2,1075
90004a38:	40f60633          	sub	a2,a2,a5
90004a3c:	01f00813          	li	a6,31
90004a40:	00d76733          	or	a4,a4,a3
90004a44:	02c85063          	bge	a6,a2,90004a64 <__fixdfsi+0x70>
90004a48:	41300693          	li	a3,1043
90004a4c:	40f687b3          	sub	a5,a3,a5
90004a50:	00f757b3          	srl	a5,a4,a5
90004a54:	40f00533          	neg	a0,a5
90004a58:	fc059ce3          	bnez	a1,90004a30 <__fixdfsi+0x3c>
90004a5c:	00078513          	mv	a0,a5
90004a60:	00008067          	ret
90004a64:	bed78793          	addi	a5,a5,-1043
90004a68:	00f717b3          	sll	a5,a4,a5
90004a6c:	00c55533          	srl	a0,a0,a2
90004a70:	00a7e7b3          	or	a5,a5,a0
90004a74:	fe1ff06f          	j	90004a54 <__fixdfsi+0x60>

90004a78 <__floatsidf>:
90004a78:	ff010113          	addi	sp,sp,-16
90004a7c:	00112623          	sw	ra,12(sp)
90004a80:	00812423          	sw	s0,8(sp)
90004a84:	00912223          	sw	s1,4(sp)
90004a88:	04050a63          	beqz	a0,90004adc <__floatsidf+0x64>
90004a8c:	41f55793          	srai	a5,a0,0x1f
90004a90:	00a7c4b3          	xor	s1,a5,a0
90004a94:	40f484b3          	sub	s1,s1,a5
90004a98:	00050413          	mv	s0,a0
90004a9c:	00048513          	mv	a0,s1
90004aa0:	798000ef          	jal	ra,90005238 <__clzsi2>
90004aa4:	41e00693          	li	a3,1054
90004aa8:	40a686b3          	sub	a3,a3,a0
90004aac:	00a00793          	li	a5,10
90004ab0:	01f45413          	srli	s0,s0,0x1f
90004ab4:	7ff6f693          	andi	a3,a3,2047
90004ab8:	06a7c463          	blt	a5,a0,90004b20 <__floatsidf+0xa8>
90004abc:	00b00713          	li	a4,11
90004ac0:	40a70733          	sub	a4,a4,a0
90004ac4:	00e4d7b3          	srl	a5,s1,a4
90004ac8:	01550513          	addi	a0,a0,21 # 80000015 <_data_lma+0xefffacad>
90004acc:	00c79793          	slli	a5,a5,0xc
90004ad0:	00a494b3          	sll	s1,s1,a0
90004ad4:	00c7d793          	srli	a5,a5,0xc
90004ad8:	0140006f          	j	90004aec <__floatsidf+0x74>
90004adc:	00000413          	li	s0,0
90004ae0:	00000693          	li	a3,0
90004ae4:	00000793          	li	a5,0
90004ae8:	00000493          	li	s1,0
90004aec:	00c79793          	slli	a5,a5,0xc
90004af0:	01469693          	slli	a3,a3,0x14
90004af4:	00c7d793          	srli	a5,a5,0xc
90004af8:	01f41413          	slli	s0,s0,0x1f
90004afc:	00d7e7b3          	or	a5,a5,a3
90004b00:	0087e7b3          	or	a5,a5,s0
90004b04:	00c12083          	lw	ra,12(sp)
90004b08:	00812403          	lw	s0,8(sp)
90004b0c:	00048513          	mv	a0,s1
90004b10:	00078593          	mv	a1,a5
90004b14:	00412483          	lw	s1,4(sp)
90004b18:	01010113          	addi	sp,sp,16
90004b1c:	00008067          	ret
90004b20:	ff550513          	addi	a0,a0,-11
90004b24:	00a497b3          	sll	a5,s1,a0
90004b28:	00c79793          	slli	a5,a5,0xc
90004b2c:	00c7d793          	srli	a5,a5,0xc
90004b30:	00000493          	li	s1,0
90004b34:	fb9ff06f          	j	90004aec <__floatsidf+0x74>

90004b38 <__mulsf3>:
90004b38:	fd010113          	addi	sp,sp,-48
90004b3c:	02812423          	sw	s0,40(sp)
90004b40:	01755413          	srli	s0,a0,0x17
90004b44:	01312e23          	sw	s3,28(sp)
90004b48:	01412c23          	sw	s4,24(sp)
90004b4c:	00951993          	slli	s3,a0,0x9
90004b50:	02112623          	sw	ra,44(sp)
90004b54:	02912223          	sw	s1,36(sp)
90004b58:	03212023          	sw	s2,32(sp)
90004b5c:	01512a23          	sw	s5,20(sp)
90004b60:	01612823          	sw	s6,16(sp)
90004b64:	0ff47413          	andi	s0,s0,255
90004b68:	0099d993          	srli	s3,s3,0x9
90004b6c:	01f55a13          	srli	s4,a0,0x1f
90004b70:	12040063          	beqz	s0,90004c90 <__mulsf3+0x158>
90004b74:	0ff00793          	li	a5,255
90004b78:	14f40863          	beq	s0,a5,90004cc8 <__mulsf3+0x190>
90004b7c:	00399793          	slli	a5,s3,0x3
90004b80:	04000737          	lui	a4,0x4000
90004b84:	00e7e9b3          	or	s3,a5,a4
90004b88:	f8140413          	addi	s0,s0,-127 # 7ff81 <__stack_size+0x7df81>
90004b8c:	00000493          	li	s1,0
90004b90:	00000b13          	li	s6,0
90004b94:	0175d713          	srli	a4,a1,0x17
90004b98:	00959a93          	slli	s5,a1,0x9
90004b9c:	0ff77713          	andi	a4,a4,255
90004ba0:	009ada93          	srli	s5,s5,0x9
90004ba4:	01f5d913          	srli	s2,a1,0x1f
90004ba8:	10070863          	beqz	a4,90004cb8 <__mulsf3+0x180>
90004bac:	0ff00793          	li	a5,255
90004bb0:	04f70663          	beq	a4,a5,90004bfc <__mulsf3+0xc4>
90004bb4:	003a9a93          	slli	s5,s5,0x3
90004bb8:	f8170713          	addi	a4,a4,-127 # 3ffff81 <__stack_size+0x3ffdf81>
90004bbc:	040007b7          	lui	a5,0x4000
90004bc0:	00faeab3          	or	s5,s5,a5
90004bc4:	00e40433          	add	s0,s0,a4
90004bc8:	00000613          	li	a2,0
90004bcc:	012a4533          	xor	a0,s4,s2
90004bd0:	00f00793          	li	a5,15
90004bd4:	00050693          	mv	a3,a0
90004bd8:	00140593          	addi	a1,s0,1
90004bdc:	1897e263          	bltu	a5,s1,90004d60 <__mulsf3+0x228>
90004be0:	efffb717          	auipc	a4,0xefffb
90004be4:	67070713          	addi	a4,a4,1648 # 80000250 <TWO52+0xa0>
90004be8:	00249493          	slli	s1,s1,0x2
90004bec:	00e484b3          	add	s1,s1,a4
90004bf0:	0004a783          	lw	a5,0(s1)
90004bf4:	00e787b3          	add	a5,a5,a4
90004bf8:	00078067          	jr	a5 # 4000000 <__stack_size+0x3ffe000>
90004bfc:	0ff40413          	addi	s0,s0,255
90004c00:	120a9c63          	bnez	s5,90004d38 <__mulsf3+0x200>
90004c04:	0024e493          	ori	s1,s1,2
90004c08:	00200613          	li	a2,2
90004c0c:	fc1ff06f          	j	90004bcc <__mulsf3+0x94>
90004c10:	00000513          	li	a0,0
90004c14:	0ff00713          	li	a4,255
90004c18:	004007b7          	lui	a5,0x400
90004c1c:	02c12083          	lw	ra,44(sp)
90004c20:	02812403          	lw	s0,40(sp)
90004c24:	00979793          	slli	a5,a5,0x9
90004c28:	01771713          	slli	a4,a4,0x17
90004c2c:	0097d793          	srli	a5,a5,0x9
90004c30:	01f51513          	slli	a0,a0,0x1f
90004c34:	00e7e7b3          	or	a5,a5,a4
90004c38:	02412483          	lw	s1,36(sp)
90004c3c:	02012903          	lw	s2,32(sp)
90004c40:	01c12983          	lw	s3,28(sp)
90004c44:	01812a03          	lw	s4,24(sp)
90004c48:	01412a83          	lw	s5,20(sp)
90004c4c:	01012b03          	lw	s6,16(sp)
90004c50:	00a7e533          	or	a0,a5,a0
90004c54:	03010113          	addi	sp,sp,48
90004c58:	00008067          	ret
90004c5c:	00090693          	mv	a3,s2
90004c60:	000a8993          	mv	s3,s5
90004c64:	00060b13          	mv	s6,a2
90004c68:	00200793          	li	a5,2
90004c6c:	0efb0263          	beq	s6,a5,90004d50 <__mulsf3+0x218>
90004c70:	00300793          	li	a5,3
90004c74:	f8fb0ee3          	beq	s6,a5,90004c10 <__mulsf3+0xd8>
90004c78:	00100793          	li	a5,1
90004c7c:	00068513          	mv	a0,a3
90004c80:	22fb1463          	bne	s6,a5,90004ea8 <__mulsf3+0x370>
90004c84:	00000713          	li	a4,0
90004c88:	00000793          	li	a5,0
90004c8c:	f91ff06f          	j	90004c1c <__mulsf3+0xe4>
90004c90:	06099e63          	bnez	s3,90004d0c <__mulsf3+0x1d4>
90004c94:	0175d713          	srli	a4,a1,0x17
90004c98:	00959a93          	slli	s5,a1,0x9
90004c9c:	0ff77713          	andi	a4,a4,255
90004ca0:	00400493          	li	s1,4
90004ca4:	00000413          	li	s0,0
90004ca8:	00100b13          	li	s6,1
90004cac:	009ada93          	srli	s5,s5,0x9
90004cb0:	01f5d913          	srli	s2,a1,0x1f
90004cb4:	ee071ce3          	bnez	a4,90004bac <__mulsf3+0x74>
90004cb8:	020a9263          	bnez	s5,90004cdc <__mulsf3+0x1a4>
90004cbc:	0014e493          	ori	s1,s1,1
90004cc0:	00100613          	li	a2,1
90004cc4:	f09ff06f          	j	90004bcc <__mulsf3+0x94>
90004cc8:	02099a63          	bnez	s3,90004cfc <__mulsf3+0x1c4>
90004ccc:	00800493          	li	s1,8
90004cd0:	0ff00413          	li	s0,255
90004cd4:	00200b13          	li	s6,2
90004cd8:	ebdff06f          	j	90004b94 <__mulsf3+0x5c>
90004cdc:	000a8513          	mv	a0,s5
90004ce0:	558000ef          	jal	ra,90005238 <__clzsi2>
90004ce4:	ffb50793          	addi	a5,a0,-5
90004ce8:	40a40433          	sub	s0,s0,a0
90004cec:	00fa9ab3          	sll	s5,s5,a5
90004cf0:	f8a40413          	addi	s0,s0,-118
90004cf4:	00000613          	li	a2,0
90004cf8:	ed5ff06f          	j	90004bcc <__mulsf3+0x94>
90004cfc:	00c00493          	li	s1,12
90004d00:	0ff00413          	li	s0,255
90004d04:	00300b13          	li	s6,3
90004d08:	e8dff06f          	j	90004b94 <__mulsf3+0x5c>
90004d0c:	00098513          	mv	a0,s3
90004d10:	00b12623          	sw	a1,12(sp)
90004d14:	524000ef          	jal	ra,90005238 <__clzsi2>
90004d18:	ffb50793          	addi	a5,a0,-5
90004d1c:	f8a00413          	li	s0,-118
90004d20:	00f999b3          	sll	s3,s3,a5
90004d24:	40a40433          	sub	s0,s0,a0
90004d28:	00000493          	li	s1,0
90004d2c:	00000b13          	li	s6,0
90004d30:	00c12583          	lw	a1,12(sp)
90004d34:	e61ff06f          	j	90004b94 <__mulsf3+0x5c>
90004d38:	0034e493          	ori	s1,s1,3
90004d3c:	00300613          	li	a2,3
90004d40:	e8dff06f          	j	90004bcc <__mulsf3+0x94>
90004d44:	00200793          	li	a5,2
90004d48:	000a0693          	mv	a3,s4
90004d4c:	f2fb12e3          	bne	s6,a5,90004c70 <__mulsf3+0x138>
90004d50:	00068513          	mv	a0,a3
90004d54:	0ff00713          	li	a4,255
90004d58:	00000793          	li	a5,0
90004d5c:	ec1ff06f          	j	90004c1c <__mulsf3+0xe4>
90004d60:	00010337          	lui	t1,0x10
90004d64:	fff30693          	addi	a3,t1,-1 # ffff <__stack_size+0xdfff>
90004d68:	0109d613          	srli	a2,s3,0x10
90004d6c:	010ad893          	srli	a7,s5,0x10
90004d70:	00d9f7b3          	and	a5,s3,a3
90004d74:	00dafab3          	and	s5,s5,a3
90004d78:	03578833          	mul	a6,a5,s5
90004d7c:	02f889b3          	mul	s3,a7,a5
90004d80:	01085713          	srli	a4,a6,0x10
90004d84:	03560ab3          	mul	s5,a2,s5
90004d88:	015989b3          	add	s3,s3,s5
90004d8c:	01370733          	add	a4,a4,s3
90004d90:	03160633          	mul	a2,a2,a7
90004d94:	01577463          	bgeu	a4,s5,90004d9c <__mulsf3+0x264>
90004d98:	00660633          	add	a2,a2,t1
90004d9c:	000107b7          	lui	a5,0x10
90004da0:	fff78793          	addi	a5,a5,-1 # ffff <__stack_size+0xdfff>
90004da4:	00f776b3          	and	a3,a4,a5
90004da8:	00f87833          	and	a6,a6,a5
90004dac:	01069693          	slli	a3,a3,0x10
90004db0:	010686b3          	add	a3,a3,a6
90004db4:	00669993          	slli	s3,a3,0x6
90004db8:	01075793          	srli	a5,a4,0x10
90004dbc:	013039b3          	snez	s3,s3
90004dc0:	01a6d693          	srli	a3,a3,0x1a
90004dc4:	00c787b3          	add	a5,a5,a2
90004dc8:	00679793          	slli	a5,a5,0x6
90004dcc:	00d9e6b3          	or	a3,s3,a3
90004dd0:	00d7e9b3          	or	s3,a5,a3
90004dd4:	00499793          	slli	a5,s3,0x4
90004dd8:	0007da63          	bgez	a5,90004dec <__mulsf3+0x2b4>
90004ddc:	0019d713          	srli	a4,s3,0x1
90004de0:	0019f793          	andi	a5,s3,1
90004de4:	00f769b3          	or	s3,a4,a5
90004de8:	00058413          	mv	s0,a1
90004dec:	07f40713          	addi	a4,s0,127
90004df0:	04e05663          	blez	a4,90004e3c <__mulsf3+0x304>
90004df4:	0079f793          	andi	a5,s3,7
90004df8:	00078a63          	beqz	a5,90004e0c <__mulsf3+0x2d4>
90004dfc:	00f9f793          	andi	a5,s3,15
90004e00:	00400693          	li	a3,4
90004e04:	00d78463          	beq	a5,a3,90004e0c <__mulsf3+0x2d4>
90004e08:	00498993          	addi	s3,s3,4
90004e0c:	00499793          	slli	a5,s3,0x4
90004e10:	0007da63          	bgez	a5,90004e24 <__mulsf3+0x2ec>
90004e14:	f80007b7          	lui	a5,0xf8000
90004e18:	fff78793          	addi	a5,a5,-1 # f7ffffff <_data_lma+0x67ffac97>
90004e1c:	00f9f9b3          	and	s3,s3,a5
90004e20:	08040713          	addi	a4,s0,128
90004e24:	0fe00793          	li	a5,254
90004e28:	06e7ca63          	blt	a5,a4,90004e9c <__mulsf3+0x364>
90004e2c:	00699793          	slli	a5,s3,0x6
90004e30:	0097d793          	srli	a5,a5,0x9
90004e34:	0ff77713          	andi	a4,a4,255
90004e38:	de5ff06f          	j	90004c1c <__mulsf3+0xe4>
90004e3c:	00100793          	li	a5,1
90004e40:	40e786b3          	sub	a3,a5,a4
90004e44:	00070a63          	beqz	a4,90004e58 <__mulsf3+0x320>
90004e48:	01b00613          	li	a2,27
90004e4c:	00000713          	li	a4,0
90004e50:	00000793          	li	a5,0
90004e54:	dcd644e3          	blt	a2,a3,90004c1c <__mulsf3+0xe4>
90004e58:	09e40713          	addi	a4,s0,158
90004e5c:	00e99733          	sll	a4,s3,a4
90004e60:	00e03733          	snez	a4,a4
90004e64:	00d9d7b3          	srl	a5,s3,a3
90004e68:	00e7e7b3          	or	a5,a5,a4
90004e6c:	0077f713          	andi	a4,a5,7
90004e70:	00070a63          	beqz	a4,90004e84 <__mulsf3+0x34c>
90004e74:	00f7f713          	andi	a4,a5,15
90004e78:	00400693          	li	a3,4
90004e7c:	00d70463          	beq	a4,a3,90004e84 <__mulsf3+0x34c>
90004e80:	00478793          	addi	a5,a5,4
90004e84:	00579713          	slli	a4,a5,0x5
90004e88:	02074463          	bltz	a4,90004eb0 <__mulsf3+0x378>
90004e8c:	00679793          	slli	a5,a5,0x6
90004e90:	0097d793          	srli	a5,a5,0x9
90004e94:	00000713          	li	a4,0
90004e98:	d85ff06f          	j	90004c1c <__mulsf3+0xe4>
90004e9c:	0ff00713          	li	a4,255
90004ea0:	00000793          	li	a5,0
90004ea4:	d79ff06f          	j	90004c1c <__mulsf3+0xe4>
90004ea8:	00058413          	mv	s0,a1
90004eac:	f41ff06f          	j	90004dec <__mulsf3+0x2b4>
90004eb0:	00100713          	li	a4,1
90004eb4:	00000793          	li	a5,0
90004eb8:	d65ff06f          	j	90004c1c <__mulsf3+0xe4>

90004ebc <__fixsfsi>:
90004ebc:	00800637          	lui	a2,0x800
90004ec0:	01755713          	srli	a4,a0,0x17
90004ec4:	fff60793          	addi	a5,a2,-1 # 7fffff <__stack_size+0x7fdfff>
90004ec8:	0ff77713          	andi	a4,a4,255
90004ecc:	07e00593          	li	a1,126
90004ed0:	00a7f6b3          	and	a3,a5,a0
90004ed4:	01f55793          	srli	a5,a0,0x1f
90004ed8:	00e5fe63          	bgeu	a1,a4,90004ef4 <__fixsfsi+0x38>
90004edc:	09d00593          	li	a1,157
90004ee0:	00e5fe63          	bgeu	a1,a4,90004efc <__fixsfsi+0x40>
90004ee4:	80000537          	lui	a0,0x80000
90004ee8:	fff54513          	not	a0,a0
90004eec:	00a78533          	add	a0,a5,a0
90004ef0:	00008067          	ret
90004ef4:	00000513          	li	a0,0
90004ef8:	00008067          	ret
90004efc:	09500593          	li	a1,149
90004f00:	00c6e6b3          	or	a3,a3,a2
90004f04:	02e5c063          	blt	a1,a4,90004f24 <__fixsfsi+0x68>
90004f08:	09600613          	li	a2,150
90004f0c:	40e60733          	sub	a4,a2,a4
90004f10:	00e6d733          	srl	a4,a3,a4
90004f14:	40e00533          	neg	a0,a4
90004f18:	fe0790e3          	bnez	a5,90004ef8 <__fixsfsi+0x3c>
90004f1c:	00070513          	mv	a0,a4
90004f20:	00008067          	ret
90004f24:	f6a70713          	addi	a4,a4,-150
90004f28:	00e69733          	sll	a4,a3,a4
90004f2c:	fe9ff06f          	j	90004f14 <__fixsfsi+0x58>

90004f30 <__floatsisf>:
90004f30:	ff010113          	addi	sp,sp,-16
90004f34:	00112623          	sw	ra,12(sp)
90004f38:	00812423          	sw	s0,8(sp)
90004f3c:	00912223          	sw	s1,4(sp)
90004f40:	04050863          	beqz	a0,90004f90 <__floatsisf+0x60>
90004f44:	41f55793          	srai	a5,a0,0x1f
90004f48:	00a7c433          	xor	s0,a5,a0
90004f4c:	40f40433          	sub	s0,s0,a5
90004f50:	00050493          	mv	s1,a0
90004f54:	00040513          	mv	a0,s0
90004f58:	2e0000ef          	jal	ra,90005238 <__clzsi2>
90004f5c:	09e00793          	li	a5,158
90004f60:	40a78733          	sub	a4,a5,a0
90004f64:	09600793          	li	a5,150
90004f68:	01f4d493          	srli	s1,s1,0x1f
90004f6c:	04e7ce63          	blt	a5,a4,90004fc8 <__floatsisf+0x98>
90004f70:	00800693          	li	a3,8
90004f74:	0ff77793          	andi	a5,a4,255
90004f78:	00a6d663          	bge	a3,a0,90004f84 <__floatsisf+0x54>
90004f7c:	ff850513          	addi	a0,a0,-8 # 7ffffff8 <_data_lma+0xefffac90>
90004f80:	00a41433          	sll	s0,s0,a0
90004f84:	00941413          	slli	s0,s0,0x9
90004f88:	00945413          	srli	s0,s0,0x9
90004f8c:	0100006f          	j	90004f9c <__floatsisf+0x6c>
90004f90:	00000493          	li	s1,0
90004f94:	00000793          	li	a5,0
90004f98:	00000413          	li	s0,0
90004f9c:	00941413          	slli	s0,s0,0x9
90004fa0:	00945513          	srli	a0,s0,0x9
90004fa4:	00c12083          	lw	ra,12(sp)
90004fa8:	00812403          	lw	s0,8(sp)
90004fac:	01779793          	slli	a5,a5,0x17
90004fb0:	01f49493          	slli	s1,s1,0x1f
90004fb4:	00f56533          	or	a0,a0,a5
90004fb8:	00956533          	or	a0,a0,s1
90004fbc:	00412483          	lw	s1,4(sp)
90004fc0:	01010113          	addi	sp,sp,16
90004fc4:	00008067          	ret
90004fc8:	09900793          	li	a5,153
90004fcc:	02e7d063          	bge	a5,a4,90004fec <__floatsisf+0xbc>
90004fd0:	01b50793          	addi	a5,a0,27
90004fd4:	00500693          	li	a3,5
90004fd8:	00f417b3          	sll	a5,s0,a5
90004fdc:	40a686b3          	sub	a3,a3,a0
90004fe0:	00d45433          	srl	s0,s0,a3
90004fe4:	00f037b3          	snez	a5,a5
90004fe8:	00f46433          	or	s0,s0,a5
90004fec:	00500793          	li	a5,5
90004ff0:	00a7d663          	bge	a5,a0,90004ffc <__floatsisf+0xcc>
90004ff4:	ffb50793          	addi	a5,a0,-5
90004ff8:	00f41433          	sll	s0,s0,a5
90004ffc:	fc0006b7          	lui	a3,0xfc000
90005000:	fff68693          	addi	a3,a3,-1 # fbffffff <_data_lma+0x6bffac97>
90005004:	00747793          	andi	a5,s0,7
90005008:	00d47633          	and	a2,s0,a3
9000500c:	02078463          	beqz	a5,90005034 <__floatsisf+0x104>
90005010:	00f47793          	andi	a5,s0,15
90005014:	00400593          	li	a1,4
90005018:	00b78e63          	beq	a5,a1,90005034 <__floatsisf+0x104>
9000501c:	00460613          	addi	a2,a2,4
90005020:	00561793          	slli	a5,a2,0x5
90005024:	0007d863          	bgez	a5,90005034 <__floatsisf+0x104>
90005028:	09f00793          	li	a5,159
9000502c:	00d67633          	and	a2,a2,a3
90005030:	40a78733          	sub	a4,a5,a0
90005034:	00661413          	slli	s0,a2,0x6
90005038:	00945413          	srli	s0,s0,0x9
9000503c:	0ff77793          	andi	a5,a4,255
90005040:	f5dff06f          	j	90004f9c <__floatsisf+0x6c>

90005044 <__truncdfsf2>:
90005044:	0145d693          	srli	a3,a1,0x14
90005048:	00c59793          	slli	a5,a1,0xc
9000504c:	7ff6f693          	andi	a3,a3,2047
90005050:	00c7d793          	srli	a5,a5,0xc
90005054:	00168613          	addi	a2,a3,1
90005058:	00379793          	slli	a5,a5,0x3
9000505c:	01d55713          	srli	a4,a0,0x1d
90005060:	7fe67613          	andi	a2,a2,2046
90005064:	01f5d593          	srli	a1,a1,0x1f
90005068:	00f76733          	or	a4,a4,a5
9000506c:	00351893          	slli	a7,a0,0x3
90005070:	0a060463          	beqz	a2,90005118 <__truncdfsf2+0xd4>
90005074:	c8068813          	addi	a6,a3,-896
90005078:	0fe00793          	li	a5,254
9000507c:	0307d463          	bge	a5,a6,900050a4 <__truncdfsf2+0x60>
90005080:	00000793          	li	a5,0
90005084:	00979513          	slli	a0,a5,0x9
90005088:	0ff00693          	li	a3,255
9000508c:	01769693          	slli	a3,a3,0x17
90005090:	00955513          	srli	a0,a0,0x9
90005094:	01f59593          	slli	a1,a1,0x1f
90005098:	00d56533          	or	a0,a0,a3
9000509c:	00b56533          	or	a0,a0,a1
900050a0:	00008067          	ret
900050a4:	0f005e63          	blez	a6,900051a0 <__truncdfsf2+0x15c>
900050a8:	00651793          	slli	a5,a0,0x6
900050ac:	00371713          	slli	a4,a4,0x3
900050b0:	00f037b3          	snez	a5,a5
900050b4:	00e7e7b3          	or	a5,a5,a4
900050b8:	01d8d893          	srli	a7,a7,0x1d
900050bc:	0117e7b3          	or	a5,a5,a7
900050c0:	0077f713          	andi	a4,a5,7
900050c4:	16070663          	beqz	a4,90005230 <__truncdfsf2+0x1ec>
900050c8:	00f7f713          	andi	a4,a5,15
900050cc:	00400693          	li	a3,4
900050d0:	00d70463          	beq	a4,a3,900050d8 <__truncdfsf2+0x94>
900050d4:	00478793          	addi	a5,a5,4
900050d8:	04000737          	lui	a4,0x4000
900050dc:	00e7f733          	and	a4,a5,a4
900050e0:	14070863          	beqz	a4,90005230 <__truncdfsf2+0x1ec>
900050e4:	00180713          	addi	a4,a6,1
900050e8:	0ff00613          	li	a2,255
900050ec:	0ff77693          	andi	a3,a4,255
900050f0:	f8c708e3          	beq	a4,a2,90005080 <__truncdfsf2+0x3c>
900050f4:	00679793          	slli	a5,a5,0x6
900050f8:	0097d793          	srli	a5,a5,0x9
900050fc:	00979513          	slli	a0,a5,0x9
90005100:	01769693          	slli	a3,a3,0x17
90005104:	00955513          	srli	a0,a0,0x9
90005108:	01f59593          	slli	a1,a1,0x1f
9000510c:	00d56533          	or	a0,a0,a3
90005110:	00b56533          	or	a0,a0,a1
90005114:	00008067          	ret
90005118:	011767b3          	or	a5,a4,a7
9000511c:	02069a63          	bnez	a3,90005150 <__truncdfsf2+0x10c>
90005120:	04078e63          	beqz	a5,9000517c <__truncdfsf2+0x138>
90005124:	00500793          	li	a5,5
90005128:	00679793          	slli	a5,a5,0x6
9000512c:	0097d793          	srli	a5,a5,0x9
90005130:	00979513          	slli	a0,a5,0x9
90005134:	0ff6f693          	andi	a3,a3,255
90005138:	01769693          	slli	a3,a3,0x17
9000513c:	00955513          	srli	a0,a0,0x9
90005140:	01f59593          	slli	a1,a1,0x1f
90005144:	00d56533          	or	a0,a0,a3
90005148:	00b56533          	or	a0,a0,a1
9000514c:	00008067          	ret
90005150:	f20788e3          	beqz	a5,90005080 <__truncdfsf2+0x3c>
90005154:	004007b7          	lui	a5,0x400
90005158:	00979513          	slli	a0,a5,0x9
9000515c:	0ff00693          	li	a3,255
90005160:	01769693          	slli	a3,a3,0x17
90005164:	00000593          	li	a1,0
90005168:	00955513          	srli	a0,a0,0x9
9000516c:	01f59593          	slli	a1,a1,0x1f
90005170:	00d56533          	or	a0,a0,a3
90005174:	00b56533          	or	a0,a0,a1
90005178:	00008067          	ret
9000517c:	00000793          	li	a5,0
90005180:	00979513          	slli	a0,a5,0x9
90005184:	00000693          	li	a3,0
90005188:	01769693          	slli	a3,a3,0x17
9000518c:	00955513          	srli	a0,a0,0x9
90005190:	01f59593          	slli	a1,a1,0x1f
90005194:	00d56533          	or	a0,a0,a3
90005198:	00b56533          	or	a0,a0,a1
9000519c:	00008067          	ret
900051a0:	fe900793          	li	a5,-23
900051a4:	06f84263          	blt	a6,a5,90005208 <__truncdfsf2+0x1c4>
900051a8:	01e00793          	li	a5,30
900051ac:	00800637          	lui	a2,0x800
900051b0:	410787b3          	sub	a5,a5,a6
900051b4:	01f00513          	li	a0,31
900051b8:	00c76633          	or	a2,a4,a2
900051bc:	04f55a63          	bge	a0,a5,90005210 <__truncdfsf2+0x1cc>
900051c0:	ffe00713          	li	a4,-2
900051c4:	41070733          	sub	a4,a4,a6
900051c8:	02000513          	li	a0,32
900051cc:	00e65733          	srl	a4,a2,a4
900051d0:	00a78863          	beq	a5,a0,900051e0 <__truncdfsf2+0x19c>
900051d4:	ca268693          	addi	a3,a3,-862
900051d8:	00d616b3          	sll	a3,a2,a3
900051dc:	00d8e8b3          	or	a7,a7,a3
900051e0:	011037b3          	snez	a5,a7
900051e4:	00e7e7b3          	or	a5,a5,a4
900051e8:	0077f713          	andi	a4,a5,7
900051ec:	00000813          	li	a6,0
900051f0:	ec071ce3          	bnez	a4,900050c8 <__truncdfsf2+0x84>
900051f4:	00579713          	slli	a4,a5,0x5
900051f8:	00100693          	li	a3,1
900051fc:	ee074ce3          	bltz	a4,900050f4 <__truncdfsf2+0xb0>
90005200:	00000693          	li	a3,0
90005204:	f25ff06f          	j	90005128 <__truncdfsf2+0xe4>
90005208:	00000693          	li	a3,0
9000520c:	f19ff06f          	j	90005124 <__truncdfsf2+0xe0>
90005210:	c8268693          	addi	a3,a3,-894
90005214:	00d89733          	sll	a4,a7,a3
90005218:	00e03733          	snez	a4,a4
9000521c:	00d616b3          	sll	a3,a2,a3
90005220:	00f8d8b3          	srl	a7,a7,a5
90005224:	00d767b3          	or	a5,a4,a3
90005228:	00f8e7b3          	or	a5,a7,a5
9000522c:	fbdff06f          	j	900051e8 <__truncdfsf2+0x1a4>
90005230:	00080693          	mv	a3,a6
90005234:	ef5ff06f          	j	90005128 <__truncdfsf2+0xe4>

90005238 <__clzsi2>:
90005238:	000107b7          	lui	a5,0x10
9000523c:	04f57463          	bgeu	a0,a5,90005284 <__clzsi2+0x4c>
90005240:	0ff00793          	li	a5,255
90005244:	02000713          	li	a4,32
90005248:	00a7ee63          	bltu	a5,a0,90005264 <__clzsi2+0x2c>
9000524c:	efffb797          	auipc	a5,0xefffb
90005250:	04478793          	addi	a5,a5,68 # 80000290 <__clz_tab>
90005254:	00a787b3          	add	a5,a5,a0
90005258:	0007c503          	lbu	a0,0(a5)
9000525c:	40a70533          	sub	a0,a4,a0
90005260:	00008067          	ret
90005264:	00855513          	srli	a0,a0,0x8
90005268:	efffb797          	auipc	a5,0xefffb
9000526c:	02878793          	addi	a5,a5,40 # 80000290 <__clz_tab>
90005270:	00a787b3          	add	a5,a5,a0
90005274:	0007c503          	lbu	a0,0(a5)
90005278:	01800713          	li	a4,24
9000527c:	40a70533          	sub	a0,a4,a0
90005280:	00008067          	ret
90005284:	010007b7          	lui	a5,0x1000
90005288:	02f56263          	bltu	a0,a5,900052ac <__clzsi2+0x74>
9000528c:	01855513          	srli	a0,a0,0x18
90005290:	efffb797          	auipc	a5,0xefffb
90005294:	00078793          	mv	a5,a5
90005298:	00a787b3          	add	a5,a5,a0
9000529c:	0007c503          	lbu	a0,0(a5) # 80000290 <__clz_tab>
900052a0:	00800713          	li	a4,8
900052a4:	40a70533          	sub	a0,a4,a0
900052a8:	00008067          	ret
900052ac:	01055513          	srli	a0,a0,0x10
900052b0:	efffb797          	auipc	a5,0xefffb
900052b4:	fe078793          	addi	a5,a5,-32 # 80000290 <__clz_tab>
900052b8:	00a787b3          	add	a5,a5,a0
900052bc:	0007c503          	lbu	a0,0(a5)
900052c0:	01000713          	li	a4,16
900052c4:	40a70533          	sub	a0,a4,a0
900052c8:	00008067          	ret

900052cc <__errno>:
900052cc:	efffb797          	auipc	a5,0xefffb
900052d0:	4f078793          	addi	a5,a5,1264 # 800007bc <_impure_ptr>
900052d4:	0007a503          	lw	a0,0(a5)
900052d8:	00008067          	ret

900052dc <strlen>:
900052dc:	00357793          	andi	a5,a0,3
900052e0:	00050713          	mv	a4,a0
900052e4:	04079c63          	bnez	a5,9000533c <strlen+0x60>
900052e8:	7f7f86b7          	lui	a3,0x7f7f8
900052ec:	f7f68693          	addi	a3,a3,-129 # 7f7f7f7f <__stack_size+0x7f7f5f7f>
900052f0:	fff00593          	li	a1,-1
900052f4:	00470713          	addi	a4,a4,4 # 4000004 <__stack_size+0x3ffe004>
900052f8:	ffc72603          	lw	a2,-4(a4)
900052fc:	00d677b3          	and	a5,a2,a3
90005300:	00d787b3          	add	a5,a5,a3
90005304:	00c7e7b3          	or	a5,a5,a2
90005308:	00d7e7b3          	or	a5,a5,a3
9000530c:	feb784e3          	beq	a5,a1,900052f4 <strlen+0x18>
90005310:	ffc74683          	lbu	a3,-4(a4)
90005314:	40a707b3          	sub	a5,a4,a0
90005318:	ffd74603          	lbu	a2,-3(a4)
9000531c:	ffe74503          	lbu	a0,-2(a4)
90005320:	04068063          	beqz	a3,90005360 <strlen+0x84>
90005324:	02060a63          	beqz	a2,90005358 <strlen+0x7c>
90005328:	00a03533          	snez	a0,a0
9000532c:	00f50533          	add	a0,a0,a5
90005330:	ffe50513          	addi	a0,a0,-2
90005334:	00008067          	ret
90005338:	fa0688e3          	beqz	a3,900052e8 <strlen+0xc>
9000533c:	00074783          	lbu	a5,0(a4)
90005340:	00170713          	addi	a4,a4,1
90005344:	00377693          	andi	a3,a4,3
90005348:	fe0798e3          	bnez	a5,90005338 <strlen+0x5c>
9000534c:	40a70733          	sub	a4,a4,a0
90005350:	fff70513          	addi	a0,a4,-1
90005354:	00008067          	ret
90005358:	ffd78513          	addi	a0,a5,-3
9000535c:	00008067          	ret
90005360:	ffc78513          	addi	a0,a5,-4
90005364:	00008067          	ret

Disassembly of section .data:

80000000 <TWO52-0x1b0>:
80000000:	6325                	lui	t1,0x9
80000002:	0000                	unimp
80000004:	08d4                	addi	a3,sp,84
80000006:	9000                	0x9000
80000008:	08b4                	addi	a3,sp,88
8000000a:	9000                	0x9000
8000000c:	08ec                	addi	a1,sp,92
8000000e:	9000                	0x9000
80000010:	0904                	addi	s1,sp,144
80000012:	9000                	0x9000
80000014:	0860                	addi	s0,sp,28
80000016:	9000                	0x9000
80000018:	0904                	addi	s1,sp,144
8000001a:	9000                	0x9000
8000001c:	0904                	addi	s1,sp,144
8000001e:	9000                	0x9000
80000020:	0904                	addi	s1,sp,144
80000022:	9000                	0x9000
80000024:	0904                	addi	s1,sp,144
80000026:	9000                	0x9000
80000028:	0904                	addi	s1,sp,144
8000002a:	9000                	0x9000
8000002c:	0904                	addi	s1,sp,144
8000002e:	9000                	0x9000
80000030:	0904                	addi	s1,sp,144
80000032:	9000                	0x9000
80000034:	0904                	addi	s1,sp,144
80000036:	9000                	0x9000
80000038:	08e0                	addi	s0,sp,92
8000003a:	9000                	0x9000
8000003c:	0904                	addi	s1,sp,144
8000003e:	9000                	0x9000
80000040:	0904                	addi	s1,sp,144
80000042:	9000                	0x9000
80000044:	0904                	addi	s1,sp,144
80000046:	9000                	0x9000
80000048:	07cc                	addi	a1,sp,964
8000004a:	9000                	0x9000
8000004c:	0904                	addi	s1,sp,144
8000004e:	9000                	0x9000
80000050:	08ec                	addi	a1,sp,92
80000052:	9000                	0x9000
80000054:	0904                	addi	s1,sp,144
80000056:	9000                	0x9000
80000058:	0904                	addi	s1,sp,144
8000005a:	9000                	0x9000
8000005c:	08f8                	addi	a4,sp,92
8000005e:	9000                	0x9000
80000060:	0000                	unimp
80000062:	0000                	unimp
80000064:	0000                	unimp
80000066:	4024                	lw	s1,64(s0)
80000068:	0000                	unimp
8000006a:	0000                	unimp
8000006c:	0000                	unimp
8000006e:	3ff0                	fld	fa2,248(a5)
80000070:	0000                	unimp
80000072:	0000                	unimp
80000074:	0000                	unimp
80000076:	fff0                	fsw	fa2,124(a5)
80000078:	0000                	unimp
8000007a:	0000                	unimp
8000007c:	0000                	unimp
8000007e:	3fe0                	fld	fs0,248(a5)
80000080:	0000                	unimp
80000082:	e000                	fsw	fs0,0(s0)
80000084:	ffff                	0xffff
80000086:	000047ef          	jal	a5,80004086 <__global_pointer$+0x30ce>
8000008a:	e000                	fsw	fs0,0(s0)
8000008c:	ffff                	0xffff
8000008e:	0000c7ef          	jal	a5,8000c08e <__freertos_irq_stack_top+0x408e>
80000092:	0000                	unimp
80000094:	0000                	unimp
80000096:	7ff0                	flw	fa2,124(a5)
80000098:	6f70                	flw	fa2,92(a4)
8000009a:	00000077          	0x77
8000009e:	0000                	unimp
800000a0:	0000                	unimp
800000a2:	4000                	lw	s0,0(s0)
800000a4:	3fe2b803          	0x3fe2b803
800000a8:	d006                	sw	ra,32(sp)
800000aa:	fdeb43cf          	0xfdeb43cf
800000ae:	3e4c                	fld	fa1,184(a2)
800000b0:	0000                	unimp
800000b2:	0000                	unimp
800000b4:	0000                	unimp
800000b6:	3ff8                	fld	fa4,248(a5)
800000b8:	0000                	unimp
800000ba:	0000                	unimp
800000bc:	0000                	unimp
800000be:	bff0                	fsd	fa2,248(a5)
800000c0:	759c                	flw	fa5,40(a1)
800000c2:	8800                	0x8800
800000c4:	e43c                	fsw	fa5,72(s0)
800000c6:	00007e37          	lui	t3,0x7
800000ca:	6000                	flw	fs0,0(s0)
800000cc:	3ff71547          	fmsub.q	fa0,fa4,ft11,ft7,rtz
800000d0:	df44                	sw	s1,60(a4)
800000d2:	f85d                	bnez	s0,80000088 <_data+0x88>
800000d4:	3e54ae0b          	0x3e54ae0b
800000d8:	0000                	unimp
800000da:	0000                	unimp
800000dc:	0000                	unimp
800000de:	3fd0                	fld	fa2,184(a5)
800000e0:	5555                	li	a0,-11
800000e2:	5555                	li	a0,-11
800000e4:	5555                	li	a0,-11
800000e6:	3fd5                	jal	800000da <_data+0xda>
800000e8:	82fe                	mv	t0,t6
800000ea:	1547652b          	0x1547652b
800000ee:	00003ff7          	0x3ff7
800000f2:	0000                	unimp
800000f4:	0000                	unimp
800000f6:	4340                	lw	s0,4(a4)
800000f8:	4a454eef          	jal	t4,8005459c <__freertos_irq_stack_top+0x4c59c>
800000fc:	7e28                	flw	fa0,120(a2)
800000fe:	3fca                	fld	ft11,176(sp)
80000100:	db65                	beqz	a4,800000f0 <_data+0xf0>
80000102:	93c9                	srli	a5,a5,0x32
80000104:	864a                	mv	a2,s2
80000106:	3fcd                	jal	800000f8 <_data+0xf8>
80000108:	4101                	li	sp,0
8000010a:	a91d                	j	80000540 <impure_data+0x1b0>
8000010c:	7460                	flw	fs0,108(s0)
8000010e:	3fd1                	jal	800000e2 <_data+0xe2>
80000110:	264d                	jal	800004b2 <impure_data+0x122>
80000112:	5555518f          	0x5555518f
80000116:	3fd5                	jal	8000010a <_data+0x10a>
80000118:	abff                	0xabff
8000011a:	6db6db6f          	jal	s6,8006dff4 <__freertos_irq_stack_top+0x65ff4>
8000011e:	33033fdb          	0x33033fdb
80000122:	33333333          	0x33333333
80000126:	00003fe3          	0x3fe3
8000012a:	0000                	unimp
8000012c:	0000                	unimp
8000012e:	4008                	lw	a0,0(s0)
80000130:	0000                	unimp
80000132:	e000                	fsw	fs0,0(s0)
80000134:	c709                	beqz	a4,8000013e <_data+0x13e>
80000136:	3fee                	fld	ft11,248(sp)
80000138:	03fd                	addi	t2,t2,31
8000013a:	dc3a                	sw	a4,56(sp)
8000013c:	c709                	beqz	a4,80000146 <_data+0x146>
8000013e:	3fee                	fld	ft11,248(sp)
80000140:	01f5                	addi	gp,gp,29
80000142:	2fe0145b          	0x2fe0145b
80000146:	be3e                	fsd	fa5,312(sp)
80000148:	82fe                	mv	t0,t6
8000014a:	1547652b          	0x1547652b
8000014e:	f3593c97          	auipc	s9,0xf3593
80000152:	c2f8                	sw	a4,68(a3)
80000154:	6e1f 01a5 0000      	0x1a56e1f
8000015a:	0000                	unimp
8000015c:	3fe62e43          	fmadd.q	ft8,fa2,ft10,ft7,rdn
80000160:	fefa39ef          	jal	s3,7ffa414e <__stack_size+0x7ffa214e>
80000164:	2e42                	fld	ft8,16(sp)
80000166:	3fe6                	fld	ft11,120(sp)
80000168:	6c39                	lui	s8,0xe
8000016a:	0ca8                	addi	a0,sp,600
8000016c:	5c61                	li	s8,-8
8000016e:	be20                	fsd	fs0,120(a2)
80000170:	a4d0                	fsd	fa2,136(s1)
80000172:	72be                	flw	ft5,236(sp)
80000174:	3769                	jal	800000fe <_data+0xfe>
80000176:	3e66                	fld	ft8,120(sp)
80000178:	6bf1                	lui	s7,0x1c
8000017a:	c5d2                	sw	s4,200(sp)
8000017c:	bd41                	j	8000000c <_data+0xc>
8000017e:	de2c3ebb          	0xde2c3ebb
80000182:	af25                	j	800008ba <_end+0xf2>
80000184:	566a                	lw	a2,184(sp)
80000186:	3f11                	jal	8000009a <_data+0x9a>
80000188:	16bebd93          	sltiu	s11,t4,363
8000018c:	c16c                	sw	a1,68(a0)
8000018e:	3f66                	fld	ft10,120(sp)
80000190:	553e                	lw	a0,236(sp)
80000192:	5555                	li	a0,-11
80000194:	5555                	li	a0,-11
80000196:	3fc5                	jal	80000186 <_data+0x186>
80000198:	0000                	unimp
8000019a:	0000                	unimp
8000019c:	0000                	unimp
8000019e:	4000                	lw	s0,0(s0)
	...
800001ac:	0000                	unimp
800001ae:	7ff8                	flw	fa4,124(a5)

800001b0 <TWO52>:
800001b0:	0000                	unimp
800001b2:	0000                	unimp
800001b4:	0000                	unimp
800001b6:	4330                	lw	a2,64(a4)
800001b8:	0000                	unimp
800001ba:	0000                	unimp
800001bc:	0000                	unimp
800001be:	c330                	sw	a2,64(a4)
800001c0:	0000                	unimp
800001c2:	0000                	unimp
800001c4:	0000                	unimp
800001c6:	4350                	lw	a2,4(a4)
800001c8:	0000                	unimp
800001ca:	0000                	unimp
800001cc:	0000                	unimp
800001ce:	3c90                	fld	fa2,56(s1)
800001d0:	31fc                	fld	fa5,224(a1)
800001d2:	1000                	addi	s0,sp,32
800001d4:	2fdc                	fld	fa5,152(a5)
800001d6:	1000                	addi	s0,sp,32
800001d8:	316c                	fld	fa1,224(a0)
800001da:	1000                	addi	s0,sp,32
800001dc:	317c                	fld	fa5,224(a0)
800001de:	1000                	addi	s0,sp,32
800001e0:	316c                	fld	fa1,224(a0)
800001e2:	1000                	addi	s0,sp,32
800001e4:	3034                	fld	fa3,96(s0)
800001e6:	1000                	addi	s0,sp,32
800001e8:	316c                	fld	fa1,224(a0)
800001ea:	1000                	addi	s0,sp,32
800001ec:	317c                	fld	fa5,224(a0)
800001ee:	1000                	addi	s0,sp,32
800001f0:	2fdc                	fld	fa5,152(a5)
800001f2:	1000                	addi	s0,sp,32
800001f4:	2fdc                	fld	fa5,152(a5)
800001f6:	1000                	addi	s0,sp,32
800001f8:	3034                	fld	fa3,96(s0)
800001fa:	1000                	addi	s0,sp,32
800001fc:	317c                	fld	fa5,224(a0)
800001fe:	1000                	addi	s0,sp,32
80000200:	31e8                	fld	fa0,224(a1)
80000202:	1000                	addi	s0,sp,32
80000204:	31e8                	fld	fa0,224(a1)
80000206:	1000                	addi	s0,sp,32
80000208:	31e8                	fld	fa0,224(a1)
8000020a:	1000                	addi	s0,sp,32
8000020c:	3034                	fld	fa3,96(s0)
8000020e:	1000                	addi	s0,sp,32
80000210:	3b9c                	fld	fa5,48(a5)
80000212:	1000                	addi	s0,sp,32
80000214:	3a18                	fld	fa4,48(a2)
80000216:	1000                	addi	s0,sp,32
80000218:	3a18                	fld	fa4,48(a2)
8000021a:	1000                	addi	s0,sp,32
8000021c:	3a14                	fld	fa3,48(a2)
8000021e:	1000                	addi	s0,sp,32
80000220:	3a24                	fld	fs1,112(a2)
80000222:	1000                	addi	s0,sp,32
80000224:	3a24                	fld	fs1,112(a2)
80000226:	1000                	addi	s0,sp,32
80000228:	39b8                	fld	fa4,112(a1)
8000022a:	1000                	addi	s0,sp,32
8000022c:	3a14                	fld	fa3,48(a2)
8000022e:	1000                	addi	s0,sp,32
80000230:	3a24                	fld	fs1,112(a2)
80000232:	1000                	addi	s0,sp,32
80000234:	39b8                	fld	fa4,112(a1)
80000236:	1000                	addi	s0,sp,32
80000238:	3a24                	fld	fs1,112(a2)
8000023a:	1000                	addi	s0,sp,32
8000023c:	3a14                	fld	fa3,48(a2)
8000023e:	1000                	addi	s0,sp,32
80000240:	3b7c                	fld	fa5,240(a4)
80000242:	1000                	addi	s0,sp,32
80000244:	3b7c                	fld	fa5,240(a4)
80000246:	1000                	addi	s0,sp,32
80000248:	3b7c                	fld	fa5,240(a4)
8000024a:	1000                	addi	s0,sp,32
8000024c:	39b8                	fld	fa4,112(a1)
8000024e:	1000                	addi	s0,sp,32
80000250:	4b10                	lw	a2,16(a4)
80000252:	1000                	addi	s0,sp,32
80000254:	4a10                	lw	a2,16(a2)
80000256:	1000                	addi	s0,sp,32
80000258:	4a10                	lw	a2,16(a2)
8000025a:	1000                	addi	s0,sp,32
8000025c:	4a0c                	lw	a1,16(a2)
8000025e:	1000                	addi	s0,sp,32
80000260:	4a18                	lw	a4,16(a2)
80000262:	1000                	addi	s0,sp,32
80000264:	4a18                	lw	a4,16(a2)
80000266:	1000                	addi	s0,sp,32
80000268:	49c0                	lw	s0,20(a1)
8000026a:	1000                	addi	s0,sp,32
8000026c:	4a0c                	lw	a1,16(a2)
8000026e:	1000                	addi	s0,sp,32
80000270:	4a18                	lw	a4,16(a2)
80000272:	1000                	addi	s0,sp,32
80000274:	49c0                	lw	s0,20(a1)
80000276:	1000                	addi	s0,sp,32
80000278:	4a18                	lw	a4,16(a2)
8000027a:	1000                	addi	s0,sp,32
8000027c:	4a0c                	lw	a1,16(a2)
8000027e:	1000                	addi	s0,sp,32
80000280:	4af4                	lw	a3,84(a3)
80000282:	1000                	addi	s0,sp,32
80000284:	4af4                	lw	a3,84(a3)
80000286:	1000                	addi	s0,sp,32
80000288:	4af4                	lw	a3,84(a3)
8000028a:	1000                	addi	s0,sp,32
8000028c:	49c0                	lw	s0,20(a1)
8000028e:	1000                	addi	s0,sp,32

80000290 <__clz_tab>:
80000290:	0100                	addi	s0,sp,128
80000292:	0202                	c.slli64	tp
80000294:	03030303          	lb	t1,48(t1) # 9030 <__stack_size+0x7030>
80000298:	0404                	addi	s1,sp,512
8000029a:	0404                	addi	s1,sp,512
8000029c:	0404                	addi	s1,sp,512
8000029e:	0404                	addi	s1,sp,512
800002a0:	0505                	addi	a0,a0,1
800002a2:	0505                	addi	a0,a0,1
800002a4:	0505                	addi	a0,a0,1
800002a6:	0505                	addi	a0,a0,1
800002a8:	0505                	addi	a0,a0,1
800002aa:	0505                	addi	a0,a0,1
800002ac:	0505                	addi	a0,a0,1
800002ae:	0505                	addi	a0,a0,1
800002b0:	0606                	slli	a2,a2,0x1
800002b2:	0606                	slli	a2,a2,0x1
800002b4:	0606                	slli	a2,a2,0x1
800002b6:	0606                	slli	a2,a2,0x1
800002b8:	0606                	slli	a2,a2,0x1
800002ba:	0606                	slli	a2,a2,0x1
800002bc:	0606                	slli	a2,a2,0x1
800002be:	0606                	slli	a2,a2,0x1
800002c0:	0606                	slli	a2,a2,0x1
800002c2:	0606                	slli	a2,a2,0x1
800002c4:	0606                	slli	a2,a2,0x1
800002c6:	0606                	slli	a2,a2,0x1
800002c8:	0606                	slli	a2,a2,0x1
800002ca:	0606                	slli	a2,a2,0x1
800002cc:	0606                	slli	a2,a2,0x1
800002ce:	0606                	slli	a2,a2,0x1
800002d0:	07070707          	0x7070707
800002d4:	07070707          	0x7070707
800002d8:	07070707          	0x7070707
800002dc:	07070707          	0x7070707
800002e0:	07070707          	0x7070707
800002e4:	07070707          	0x7070707
800002e8:	07070707          	0x7070707
800002ec:	07070707          	0x7070707
800002f0:	07070707          	0x7070707
800002f4:	07070707          	0x7070707
800002f8:	07070707          	0x7070707
800002fc:	07070707          	0x7070707
80000300:	07070707          	0x7070707
80000304:	07070707          	0x7070707
80000308:	07070707          	0x7070707
8000030c:	07070707          	0x7070707
80000310:	0808                	addi	a0,sp,16
80000312:	0808                	addi	a0,sp,16
80000314:	0808                	addi	a0,sp,16
80000316:	0808                	addi	a0,sp,16
80000318:	0808                	addi	a0,sp,16
8000031a:	0808                	addi	a0,sp,16
8000031c:	0808                	addi	a0,sp,16
8000031e:	0808                	addi	a0,sp,16
80000320:	0808                	addi	a0,sp,16
80000322:	0808                	addi	a0,sp,16
80000324:	0808                	addi	a0,sp,16
80000326:	0808                	addi	a0,sp,16
80000328:	0808                	addi	a0,sp,16
8000032a:	0808                	addi	a0,sp,16
8000032c:	0808                	addi	a0,sp,16
8000032e:	0808                	addi	a0,sp,16
80000330:	0808                	addi	a0,sp,16
80000332:	0808                	addi	a0,sp,16
80000334:	0808                	addi	a0,sp,16
80000336:	0808                	addi	a0,sp,16
80000338:	0808                	addi	a0,sp,16
8000033a:	0808                	addi	a0,sp,16
8000033c:	0808                	addi	a0,sp,16
8000033e:	0808                	addi	a0,sp,16
80000340:	0808                	addi	a0,sp,16
80000342:	0808                	addi	a0,sp,16
80000344:	0808                	addi	a0,sp,16
80000346:	0808                	addi	a0,sp,16
80000348:	0808                	addi	a0,sp,16
8000034a:	0808                	addi	a0,sp,16
8000034c:	0808                	addi	a0,sp,16
8000034e:	0808                	addi	a0,sp,16
80000350:	0808                	addi	a0,sp,16
80000352:	0808                	addi	a0,sp,16
80000354:	0808                	addi	a0,sp,16
80000356:	0808                	addi	a0,sp,16
80000358:	0808                	addi	a0,sp,16
8000035a:	0808                	addi	a0,sp,16
8000035c:	0808                	addi	a0,sp,16
8000035e:	0808                	addi	a0,sp,16
80000360:	0808                	addi	a0,sp,16
80000362:	0808                	addi	a0,sp,16
80000364:	0808                	addi	a0,sp,16
80000366:	0808                	addi	a0,sp,16
80000368:	0808                	addi	a0,sp,16
8000036a:	0808                	addi	a0,sp,16
8000036c:	0808                	addi	a0,sp,16
8000036e:	0808                	addi	a0,sp,16
80000370:	0808                	addi	a0,sp,16
80000372:	0808                	addi	a0,sp,16
80000374:	0808                	addi	a0,sp,16
80000376:	0808                	addi	a0,sp,16
80000378:	0808                	addi	a0,sp,16
8000037a:	0808                	addi	a0,sp,16
8000037c:	0808                	addi	a0,sp,16
8000037e:	0808                	addi	a0,sp,16
80000380:	0808                	addi	a0,sp,16
80000382:	0808                	addi	a0,sp,16
80000384:	0808                	addi	a0,sp,16
80000386:	0808                	addi	a0,sp,16
80000388:	0808                	addi	a0,sp,16
8000038a:	0808                	addi	a0,sp,16
8000038c:	0808                	addi	a0,sp,16
8000038e:	0808                	addi	a0,sp,16

80000390 <impure_data>:
80000390:	0000                	unimp
80000392:	0000                	unimp
80000394:	067c                	addi	a5,sp,780
80000396:	8000                	0x8000
80000398:	06e4                	addi	s1,sp,844
8000039a:	8000                	0x8000
8000039c:	074c                	addi	a1,sp,900
8000039e:	8000                	0x8000
	...
80000438:	0001                	nop
8000043a:	0000                	unimp
8000043c:	0000                	unimp
8000043e:	0000                	unimp
80000440:	330e                	fld	ft6,224(sp)
80000442:	abcd                	j	80000a34 <_end+0x26c>
80000444:	1234                	addi	a3,sp,296
80000446:	e66d                	bnez	a2,80000530 <impure_data+0x1a0>
80000448:	deec                	sw	a1,124(a3)
8000044a:	0005                	c.nop	1
8000044c:	0000000b          	0xb
	...

800007b8 <__fdlib_version>:
800007b8:	0001                	nop
	...

800007bc <_impure_ptr>:
800007bc:	0390                	addi	a2,sp,448
800007be:	8000                	0x8000

Disassembly of section .bss:

800007c0 <__bss_start>:
800007c0:	0000                	unimp
	...

800007c4 <xfunc_out>:
800007c4:	0000                	unimp
	...

Disassembly of section .stack:

80006000 <__freertos_irq_stack_top-0x2000>:
	...

Disassembly of section .comment:

00000000 <.comment>:
   0:	3a434347          	fmsub.d	ft6,ft6,ft4,ft7,rmm
   4:	2820                	fld	fs0,80(s0)
   6:	20554e47          	fmsub.s	ft8,fa0,ft5,ft4,rmm
   a:	434d                	li	t1,19
   c:	2055                	jal	b0 <__stack_size-0x1f50>
   e:	6345                	lui	t1,0x11
  10:	696c                	flw	fa1,84(a0)
  12:	7370                	flw	fa2,100(a4)
  14:	2065                	jal	bc <__stack_size-0x1f44>
  16:	4952                	lw	s2,20(sp)
  18:	562d4353          	0x562d4353
  1c:	4520                	lw	s0,72(a0)
  1e:	626d                	lui	tp,0x1b
  20:	6465                	lui	s0,0x19
  22:	6564                	flw	fs1,76(a0)
  24:	2064                	fld	fs1,192(s0)
  26:	2c434347          	0x2c434347
  2a:	3620                	fld	fs0,104(a2)
  2c:	2d34                	fld	fa3,88(a0)
  2e:	6962                	flw	fs2,24(sp)
  30:	2974                	fld	fa3,208(a0)
  32:	3820                	fld	fs0,112(s0)
  34:	322e                	fld	ft4,232(sp)
  36:	302e                	fld	ft0,232(sp)
	...

Disassembly of section .debug_frame:

00000000 <.debug_frame>:
   0:	000c                	0xc
   2:	0000                	unimp
   4:	ffff                	0xffff
   6:	ffff                	0xffff
   8:	0001                	nop
   a:	7c01                	lui	s8,0xfffe0
   c:	0d01                	addi	s10,s10,0
   e:	0002                	c.slli64	zero
  10:	003c                	addi	a5,sp,8
  12:	0000                	unimp
  14:	0000                	unimp
  16:	0000                	unimp
  18:	0c4c                	addi	a1,sp,532
  1a:	9000                	0x9000
  1c:	04dc                	addi	a5,sp,580
  1e:	0000                	unimp
  20:	0e44                	addi	s1,sp,788
  22:	4460                	lw	s0,76(s0)
  24:	88680997          	auipc	s3,0x88680
  28:	8902                	jr	s2
  2a:	93049203          	lh	tp,-1744(s1)
  2e:	9405                	srai	s0,s0,0x21
  30:	9506                	add	a0,a0,ra
  32:	81089607          	0x81089607
  36:	0201                	addi	tp,tp,0
  38:	0ad0                	addi	a2,sp,340
  3a:	44c1                	li	s1,16
  3c:	4cc8                	lw	a0,28(s1)
  3e:	44c9                	li	s1,18
  40:	44d2                	lw	s1,20(sp)
  42:	44d444d3          	0x44d444d3
  46:	44d5                	li	s1,21
  48:	44d6                	lw	s1,84(sp)
  4a:	000e44d7          	0xe44d7
  4e:	0b44                	addi	s1,sp,404
  50:	000c                	0xc
  52:	0000                	unimp
  54:	ffff                	0xffff
  56:	ffff                	0xffff
  58:	0001                	nop
  5a:	7c01                	lui	s8,0xfffe0
  5c:	0d01                	addi	s10,s10,0
  5e:	0002                	c.slli64	zero
  60:	0090                	addi	a2,sp,64
  62:	0000                	unimp
  64:	0050                	addi	a2,sp,4
  66:	0000                	unimp
  68:	1128                	addi	a0,sp,168
  6a:	9000                	0x9000
  6c:	0fd8                	addi	a4,sp,980
  6e:	0000                	unimp
  70:	0e48                	addi	a0,sp,788
  72:	0180                	addi	s0,sp,192
  74:	9248                	0x9248
  76:	7404                	flw	fs1,40(s0)
  78:	0181                	addi	gp,gp,0
  7a:	0288                	addi	a0,sp,320
  7c:	0389                	addi	t2,t2,2
  7e:	06940593          	addi	a1,s0,105 # 19069 <__stack_size+0x17069>
  82:	0795                	addi	a5,a5,5
  84:	0896                	slli	a7,a7,0x5
  86:	0a980997          	auipc	s3,0xa980
  8a:	0b99                	addi	s7,s7,6
  8c:	0c9a                	slli	s9,s9,0x6
  8e:	0a780d9b          	0xa780d9b
  92:	44c1                	li	s1,16
  94:	44c8                	lw	a0,12(s1)
  96:	44c9                	li	s1,18
  98:	44d2                	lw	s1,20(sp)
  9a:	44d444d3          	0x44d444d3
  9e:	44d5                	li	s1,21
  a0:	44d6                	lw	s1,84(sp)
  a2:	44d844d7          	0x44d844d7
  a6:	44d9                	li	s1,22
  a8:	44da                	lw	s1,148(sp)
  aa:	000e44db          	0xe44db
  ae:	0b44                	addi	s1,sp,404
  b0:	5402                	lw	s0,32(sp)
  b2:	c80a                	sw	sp,16(sp)
  b4:	c144                	sw	s1,4(a0)
  b6:	d244                	sw	s1,36(a2)
  b8:	d444                	sw	s1,44(s0)
  ba:	d544                	sw	s1,44(a0)
  bc:	d644                	sw	s1,44(a2)
  be:	d744                	sw	s1,44(a4)
  c0:	d844                	sw	s1,52(s0)
  c2:	d944                	sw	s1,52(a0)
  c4:	da44                	sw	s1,52(a2)
  c6:	db44                	sw	s1,52(a4)
  c8:	d34c                	sw	a1,36(a4)
  ca:	c944                	sw	s1,20(a0)
  cc:	0e44                	addi	s1,sp,788
  ce:	4400                	lw	s0,8(s0)
  d0:	c80a580b          	0xc80a580b
  d4:	c144                	sw	s1,4(a0)
  d6:	c944                	sw	s1,20(a0)
  d8:	d244                	sw	s1,36(a2)
  da:	d344                	sw	s1,36(a4)
  dc:	d444                	sw	s1,44(s0)
  de:	d544                	sw	s1,44(a0)
  e0:	d644                	sw	s1,44(a2)
  e2:	d744                	sw	s1,44(a4)
  e4:	d844                	sw	s1,52(s0)
  e6:	d944                	sw	s1,52(a0)
  e8:	da44                	sw	s1,52(a2)
  ea:	db44                	sw	s1,52(a4)
  ec:	0e4c                	addi	a1,sp,788
  ee:	4400                	lw	s0,8(s0)
  f0:	0000000b          	0xb
  f4:	000c                	0xc
  f6:	0000                	unimp
  f8:	ffff                	0xffff
  fa:	ffff                	0xffff
  fc:	0001                	nop
  fe:	7c01                	lui	s8,0xfffe0
 100:	0d01                	addi	s10,s10,0
 102:	0002                	c.slli64	zero
 104:	0034                	addi	a3,sp,8
 106:	0000                	unimp
 108:	00f4                	addi	a3,sp,76
 10a:	0000                	unimp
 10c:	2100                	fld	fs0,0(a0)
 10e:	9000                	0x9000
 110:	02b0                	addi	a2,sp,328
 112:	0000                	unimp
 114:	0e44                	addi	s1,sp,788
 116:	5010                	lw	a2,32(s0)
 118:	0288                	addi	a0,sp,320
 11a:	0389                	addi	t2,t2,2
 11c:	0181                	addi	gp,gp,0
 11e:	0a016c03          	0xa016c03
 122:	44c1                	li	s1,16
 124:	4cc8                	lw	a0,28(s1)
 126:	44c9                	li	s1,18
 128:	000e                	c.slli	zero,0x3
 12a:	0b44                	addi	s1,sp,404
 12c:	b802                	fsd	ft0,48(sp)
 12e:	c10a                	sw	sp,128(sp)
 130:	c844                	sw	s1,20(s0)
 132:	c954                	sw	a3,20(a0)
 134:	0e44                	addi	s1,sp,788
 136:	4400                	lw	s0,8(s0)
 138:	0000000b          	0xb
 13c:	000c                	0xc
 13e:	0000                	unimp
 140:	ffff                	0xffff
 142:	ffff                	0xffff
 144:	0001                	nop
 146:	7c01                	lui	s8,0xfffe0
 148:	0d01                	addi	s10,s10,0
 14a:	0002                	c.slli64	zero
 14c:	000c                	0xc
 14e:	0000                	unimp
 150:	013c                	addi	a5,sp,136
 152:	0000                	unimp
 154:	23b0                	fld	fa2,64(a5)
 156:	9000                	0x9000
 158:	000c                	0xc
 15a:	0000                	unimp
 15c:	000c                	0xc
 15e:	0000                	unimp
 160:	ffff                	0xffff
 162:	ffff                	0xffff
 164:	0001                	nop
 166:	7c01                	lui	s8,0xfffe0
 168:	0d01                	addi	s10,s10,0
 16a:	0002                	c.slli64	zero
 16c:	000c                	0xc
 16e:	0000                	unimp
 170:	015c                	addi	a5,sp,132
 172:	0000                	unimp
 174:	23bc                	fld	fa5,64(a5)
 176:	9000                	0x9000
 178:	0018                	0x18
 17a:	0000                	unimp
 17c:	000c                	0xc
 17e:	0000                	unimp
 180:	ffff                	0xffff
 182:	ffff                	0xffff
 184:	0001                	nop
 186:	7c01                	lui	s8,0xfffe0
 188:	0d01                	addi	s10,s10,0
 18a:	0002                	c.slli64	zero
 18c:	000c                	0xc
 18e:	0000                	unimp
 190:	017c                	addi	a5,sp,140
 192:	0000                	unimp
 194:	23d4                	fld	fa3,128(a5)
 196:	9000                	0x9000
 198:	0008                	0x8
 19a:	0000                	unimp
 19c:	000c                	0xc
 19e:	0000                	unimp
 1a0:	ffff                	0xffff
 1a2:	ffff                	0xffff
 1a4:	0001                	nop
 1a6:	7c01                	lui	s8,0xfffe0
 1a8:	0d01                	addi	s10,s10,0
 1aa:	0002                	c.slli64	zero
 1ac:	000c                	0xc
 1ae:	0000                	unimp
 1b0:	019c                	addi	a5,sp,192
 1b2:	0000                	unimp
 1b4:	23dc                	fld	fa5,128(a5)
 1b6:	9000                	0x9000
 1b8:	0014                	0x14
 1ba:	0000                	unimp
 1bc:	000c                	0xc
 1be:	0000                	unimp
 1c0:	ffff                	0xffff
 1c2:	ffff                	0xffff
 1c4:	0001                	nop
 1c6:	7c01                	lui	s8,0xfffe0
 1c8:	0d01                	addi	s10,s10,0
 1ca:	0002                	c.slli64	zero
 1cc:	002c                	addi	a1,sp,8
 1ce:	0000                	unimp
 1d0:	01bc                	addi	a5,sp,200
 1d2:	0000                	unimp
 1d4:	23f0                	fld	fa2,192(a5)
 1d6:	9000                	0x9000
 1d8:	0224                	addi	s1,sp,264
 1da:	0000                	unimp
 1dc:	0e48                	addi	a0,sp,788
 1de:	5830                	lw	a2,112(s0)
 1e0:	0288                	addi	a0,sp,320
 1e2:	0181                	addi	gp,gp,0
 1e4:	0389                	addi	t2,t2,2
 1e6:	0492                	slli	s1,s1,0x4
 1e8:	cc020593          	addi	a1,tp,-832 # 1acc0 <__stack_size+0x18cc0>
 1ec:	c10a                	sw	sp,128(sp)
 1ee:	c844                	sw	s1,20(s0)
 1f0:	c944                	sw	s1,20(a0)
 1f2:	d244                	sw	s1,36(a2)
 1f4:	d344                	sw	s1,36(a4)
 1f6:	0e4c                	addi	a1,sp,788
 1f8:	4400                	lw	s0,8(s0)
 1fa:	000c000b          	0xc000b
 1fe:	0000                	unimp
 200:	ffff                	0xffff
 202:	ffff                	0xffff
 204:	0001                	nop
 206:	7c01                	lui	s8,0xfffe0
 208:	0d01                	addi	s10,s10,0
 20a:	0002                	c.slli64	zero
 20c:	0054                	addi	a3,sp,4
 20e:	0000                	unimp
 210:	01fc                	addi	a5,sp,204
 212:	0000                	unimp
 214:	2614                	fld	fa3,8(a2)
 216:	9000                	0x9000
 218:	01f4                	addi	a3,sp,204
 21a:	0000                	unimp
 21c:	0e44                	addi	s1,sp,788
 21e:	5010                	lw	a2,32(s0)
 220:	0288                	addi	a0,sp,320
 222:	0181                	addi	gp,gp,0
 224:	0389                	addi	t2,t2,2
 226:	bc02                	fsd	ft0,56(sp)
 228:	c10a                	sw	sp,128(sp)
 22a:	c844                	sw	s1,20(s0)
 22c:	c944                	sw	s1,20(a0)
 22e:	0e4c                	addi	a1,sp,788
 230:	4400                	lw	s0,8(s0)
 232:	c10a5c0b          	0xc10a5c0b
 236:	c844                	sw	s1,20(s0)
 238:	c94c                	sw	a1,20(a0)
 23a:	0e4c                	addi	a1,sp,788
 23c:	4400                	lw	s0,8(s0)
 23e:	0a3c020b          	0xa3c020b
 242:	44c1                	li	s1,16
 244:	4cc8                	lw	a0,28(s1)
 246:	4cc9                	li	s9,18
 248:	000e                	c.slli	zero,0x3
 24a:	0b44                	addi	s1,sp,404
 24c:	0a54                	addi	a3,sp,276
 24e:	44c1                	li	s1,16
 250:	54c8                	lw	a0,44(s1)
 252:	4cc9                	li	s9,18
 254:	000e                	c.slli	zero,0x3
 256:	0b44                	addi	s1,sp,404
 258:	c158                	sw	a4,4(a0)
 25a:	c844                	sw	s1,20(s0)
 25c:	c94c                	sw	a1,20(a0)
 25e:	0e4c                	addi	a1,sp,788
 260:	0000                	unimp
 262:	0000                	unimp
 264:	000c                	0xc
 266:	0000                	unimp
 268:	ffff                	0xffff
 26a:	ffff                	0xffff
 26c:	0001                	nop
 26e:	7c01                	lui	s8,0xfffe0
 270:	0d01                	addi	s10,s10,0
 272:	0002                	c.slli64	zero
 274:	000c                	0xc
 276:	0000                	unimp
 278:	0264                	addi	s1,sp,268
 27a:	0000                	unimp
 27c:	2808                	fld	fa0,16(s0)
 27e:	9000                	0x9000
 280:	0024                	addi	s1,sp,8
 282:	0000                	unimp
 284:	000c                	0xc
 286:	0000                	unimp
 288:	ffff                	0xffff
 28a:	ffff                	0xffff
 28c:	0001                	nop
 28e:	7c01                	lui	s8,0xfffe0
 290:	0d01                	addi	s10,s10,0
 292:	0002                	c.slli64	zero
 294:	0030                	addi	a2,sp,8
 296:	0000                	unimp
 298:	0284                	addi	s1,sp,320
 29a:	0000                	unimp
 29c:	282c                	fld	fa1,80(s0)
 29e:	9000                	0x9000
 2a0:	0884                	addi	s1,sp,80
 2a2:	0000                	unimp
 2a4:	0e48                	addi	a0,sp,788
 2a6:	5020                	lw	s0,96(s0)
 2a8:	0389                	addi	t2,t2,2
 2aa:	9370                	0x9370
 2ac:	8105                	srli	a0,a0,0x1
 2ae:	8801                	andi	s0,s0,0
 2b0:	9202                	jalr	tp
 2b2:	0304                	addi	s1,sp,384
 2b4:	0160                	addi	s0,sp,140
 2b6:	c10a                	sw	sp,128(sp)
 2b8:	c844                	sw	s1,20(s0)
 2ba:	c954                	sw	a3,20(a0)
 2bc:	d244                	sw	s1,36(a2)
 2be:	d344                	sw	s1,36(a4)
 2c0:	0e4c                	addi	a1,sp,788
 2c2:	4400                	lw	s0,8(s0)
 2c4:	0000000b          	0xb
 2c8:	000c                	0xc
 2ca:	0000                	unimp
 2cc:	ffff                	0xffff
 2ce:	ffff                	0xffff
 2d0:	0001                	nop
 2d2:	7c01                	lui	s8,0xfffe0
 2d4:	0d01                	addi	s10,s10,0
 2d6:	0002                	c.slli64	zero
 2d8:	003c                	addi	a5,sp,8
 2da:	0000                	unimp
 2dc:	02c8                	addi	a0,sp,324
 2de:	0000                	unimp
 2e0:	30b0                	fld	fa2,96(s1)
 2e2:	9000                	0x9000
 2e4:	079c                	addi	a5,sp,960
 2e6:	0000                	unimp
 2e8:	0e44                	addi	s1,sp,788
 2ea:	5040                	lw	s0,36(s0)
 2ec:	0288                	addi	a0,sp,320
 2ee:	0492                	slli	s1,s1,0x4
 2f0:	0795                	addi	a5,a5,5
 2f2:	8160                	0x8160
 2f4:	8901                	andi	a0,a0,0
 2f6:	94059303          	lh	t1,-1728(a1)
 2fa:	9606                	add	a2,a2,ra
 2fc:	9708                	0x9708
 2fe:	0209                	addi	tp,tp,2
 300:	0adc                	addi	a5,sp,340
 302:	44c1                	li	s1,16
 304:	58c8                	lw	a0,52(s1)
 306:	44c9                	li	s1,18
 308:	44d2                	lw	s1,20(sp)
 30a:	44d444d3          	0x44d444d3
 30e:	44d5                	li	s1,21
 310:	44d6                	lw	s1,84(sp)
 312:	000e4cd7          	0xe4cd7
 316:	0b44                	addi	s1,sp,404
 318:	000c                	0xc
 31a:	0000                	unimp
 31c:	ffff                	0xffff
 31e:	ffff                	0xffff
 320:	0001                	nop
 322:	7c01                	lui	s8,0xfffe0
 324:	0d01                	addi	s10,s10,0
 326:	0002                	c.slli64	zero
 328:	000c                	0xc
 32a:	0000                	unimp
 32c:	0318                	addi	a4,sp,384
 32e:	0000                	unimp
 330:	384c                	fld	fa1,176(s0)
 332:	9000                	0x9000
 334:	008c                	addi	a1,sp,64
 336:	0000                	unimp
 338:	000c                	0xc
 33a:	0000                	unimp
 33c:	ffff                	0xffff
 33e:	ffff                	0xffff
 340:	0001                	nop
 342:	7c01                	lui	s8,0xfffe0
 344:	0d01                	addi	s10,s10,0
 346:	0002                	c.slli64	zero
 348:	000c                	0xc
 34a:	0000                	unimp
 34c:	0338                	addi	a4,sp,392
 34e:	0000                	unimp
 350:	38d8                	fld	fa4,176(s1)
 352:	9000                	0x9000
 354:	00f0                	addi	a2,sp,76
 356:	0000                	unimp
 358:	000c                	0xc
 35a:	0000                	unimp
 35c:	ffff                	0xffff
 35e:	ffff                	0xffff
 360:	0001                	nop
 362:	7c01                	lui	s8,0xfffe0
 364:	0d01                	addi	s10,s10,0
 366:	0002                	c.slli64	zero
 368:	000c                	0xc
 36a:	0000                	unimp
 36c:	0358                	addi	a4,sp,388
 36e:	0000                	unimp
 370:	39c8                	fld	fa0,176(a1)
 372:	9000                	0x9000
 374:	00fc                	addi	a5,sp,76
 376:	0000                	unimp
 378:	000c                	0xc
 37a:	0000                	unimp
 37c:	ffff                	0xffff
 37e:	ffff                	0xffff
 380:	0001                	nop
 382:	7c01                	lui	s8,0xfffe0
 384:	0d01                	addi	s10,s10,0
 386:	0002                	c.slli64	zero
 388:	0040                	addi	s0,sp,4
 38a:	0000                	unimp
 38c:	0378                	addi	a4,sp,396
 38e:	0000                	unimp
 390:	3ac4                	fld	fs1,176(a3)
 392:	9000                	0x9000
 394:	0660                	addi	s0,sp,780
 396:	0000                	unimp
 398:	0e44                	addi	s1,sp,788
 39a:	4440                	lw	s0,12(s0)
 39c:	0492                	slli	s1,s1,0x4
 39e:	9350                	0x9350
 3a0:	9405                	srai	s0,s0,0x21
 3a2:	9506                	add	a0,a0,ra
 3a4:	01815807          	0x1815807
 3a8:	0288                	addi	a0,sp,320
 3aa:	0389                	addi	t2,t2,2
 3ac:	0896                	slli	a7,a7,0x5
 3ae:	04030997          	auipc	s3,0x4030
 3b2:	0a01                	addi	s4,s4,0
 3b4:	44c1                	li	s1,16
 3b6:	48c8                	lw	a0,20(s1)
 3b8:	44d2                	lw	s1,20(sp)
 3ba:	44c9                	li	s1,18
 3bc:	44d444d3          	0x44d444d3
 3c0:	44d5                	li	s1,21
 3c2:	44d6                	lw	s1,84(sp)
 3c4:	000e44d7          	0xe44d7
 3c8:	0b44                	addi	s1,sp,404
 3ca:	0000                	unimp
 3cc:	000c                	0xc
 3ce:	0000                	unimp
 3d0:	ffff                	0xffff
 3d2:	ffff                	0xffff
 3d4:	0001                	nop
 3d6:	7c01                	lui	s8,0xfffe0
 3d8:	0d01                	addi	s10,s10,0
 3da:	0002                	c.slli64	zero
 3dc:	0030                	addi	a2,sp,8
 3de:	0000                	unimp
 3e0:	03cc                	addi	a1,sp,452
 3e2:	0000                	unimp
 3e4:	4124                	lw	s1,64(a0)
 3e6:	9000                	0x9000
 3e8:	087c                	addi	a5,sp,28
 3ea:	0000                	unimp
 3ec:	0e4c                	addi	a1,sp,788
 3ee:	5c20                	lw	s0,120(s0)
 3f0:	0288                	addi	a0,sp,320
 3f2:	0389                	addi	t2,t2,2
 3f4:	8158                	0x8158
 3f6:	9201                	srli	a2,a2,0x20
 3f8:	9304                	0x9304
 3fa:	0305                	addi	t1,t1,1
 3fc:	0180                	addi	s0,sp,192
 3fe:	c10a                	sw	sp,128(sp)
 400:	c844                	sw	s1,20(s0)
 402:	c944                	sw	s1,20(a0)
 404:	d244                	sw	s1,36(a2)
 406:	d344                	sw	s1,36(a4)
 408:	0e4c                	addi	a1,sp,788
 40a:	4400                	lw	s0,8(s0)
 40c:	0000000b          	0xb
 410:	000c                	0xc
 412:	0000                	unimp
 414:	ffff                	0xffff
 416:	ffff                	0xffff
 418:	0001                	nop
 41a:	7c01                	lui	s8,0xfffe0
 41c:	0d01                	addi	s10,s10,0
 41e:	0002                	c.slli64	zero
 420:	000c                	0xc
 422:	0000                	unimp
 424:	0410                	addi	a2,sp,512
 426:	0000                	unimp
 428:	49a0                	lw	s0,80(a1)
 42a:	9000                	0x9000
 42c:	0054                	addi	a3,sp,4
 42e:	0000                	unimp
 430:	000c                	0xc
 432:	0000                	unimp
 434:	ffff                	0xffff
 436:	ffff                	0xffff
 438:	0001                	nop
 43a:	7c01                	lui	s8,0xfffe0
 43c:	0d01                	addi	s10,s10,0
 43e:	0002                	c.slli64	zero
 440:	000c                	0xc
 442:	0000                	unimp
 444:	0430                	addi	a2,sp,520
 446:	0000                	unimp
 448:	49f4                	lw	a3,84(a1)
 44a:	9000                	0x9000
 44c:	0084                	addi	s1,sp,64
 44e:	0000                	unimp
 450:	000c                	0xc
 452:	0000                	unimp
 454:	ffff                	0xffff
 456:	ffff                	0xffff
 458:	0001                	nop
 45a:	7c01                	lui	s8,0xfffe0
 45c:	0d01                	addi	s10,s10,0
 45e:	0002                	c.slli64	zero
 460:	0024                	addi	s1,sp,8
 462:	0000                	unimp
 464:	0450                	addi	a2,sp,516
 466:	0000                	unimp
 468:	4a78                	lw	a4,84(a2)
 46a:	9000                	0x9000
 46c:	00c0                	addi	s0,sp,68
 46e:	0000                	unimp
 470:	0e44                	addi	s1,sp,788
 472:	4c10                	lw	a2,24(s0)
 474:	0181                	addi	gp,gp,0
 476:	0288                	addi	a0,sp,320
 478:	0389                	addi	t2,t2,2
 47a:	8002                	0x8002
 47c:	c10a                	sw	sp,128(sp)
 47e:	c844                	sw	s1,20(s0)
 480:	c94c                	sw	a1,20(a0)
 482:	0e44                	addi	s1,sp,788
 484:	4400                	lw	s0,8(s0)
 486:	000c000b          	0xc000b
 48a:	0000                	unimp
 48c:	ffff                	0xffff
 48e:	ffff                	0xffff
 490:	0001                	nop
 492:	7c01                	lui	s8,0xfffe0
 494:	0d01                	addi	s10,s10,0
 496:	0002                	c.slli64	zero
 498:	003c                	addi	a5,sp,8
 49a:	0000                	unimp
 49c:	0488                	addi	a0,sp,576
 49e:	0000                	unimp
 4a0:	4b38                	lw	a4,80(a4)
 4a2:	9000                	0x9000
 4a4:	0384                	addi	s1,sp,448
 4a6:	0000                	unimp
 4a8:	0e44                	addi	s1,sp,788
 4aa:	4430                	lw	a2,72(s0)
 4ac:	0288                	addi	a0,sp,320
 4ae:	934c                	0x934c
 4b0:	9405                	srai	s0,s0,0x21
 4b2:	5806                	lw	a6,96(sp)
 4b4:	0181                	addi	gp,gp,0
 4b6:	0389                	addi	t2,t2,2
 4b8:	0492                	slli	s1,s1,0x4
 4ba:	0795                	addi	a5,a5,5
 4bc:	0896                	slli	a7,a7,0x5
 4be:	bc02                	fsd	ft0,56(sp)
 4c0:	c10a                	sw	sp,128(sp)
 4c2:	c844                	sw	s1,20(s0)
 4c4:	c958                	sw	a4,20(a0)
 4c6:	d244                	sw	s1,36(a2)
 4c8:	d344                	sw	s1,36(a4)
 4ca:	d444                	sw	s1,44(s0)
 4cc:	d544                	sw	s1,44(a0)
 4ce:	d644                	sw	s1,44(a2)
 4d0:	0e48                	addi	a0,sp,788
 4d2:	4400                	lw	s0,8(s0)
 4d4:	0000000b          	0xb
 4d8:	000c                	0xc
 4da:	0000                	unimp
 4dc:	ffff                	0xffff
 4de:	ffff                	0xffff
 4e0:	0001                	nop
 4e2:	7c01                	lui	s8,0xfffe0
 4e4:	0d01                	addi	s10,s10,0
 4e6:	0002                	c.slli64	zero
 4e8:	000c                	0xc
 4ea:	0000                	unimp
 4ec:	04d8                	addi	a4,sp,580
 4ee:	0000                	unimp
 4f0:	4ebc                	lw	a5,88(a3)
 4f2:	9000                	0x9000
 4f4:	0074                	addi	a3,sp,12
 4f6:	0000                	unimp
 4f8:	000c                	0xc
 4fa:	0000                	unimp
 4fc:	ffff                	0xffff
 4fe:	ffff                	0xffff
 500:	0001                	nop
 502:	7c01                	lui	s8,0xfffe0
 504:	0d01                	addi	s10,s10,0
 506:	0002                	c.slli64	zero
 508:	0024                	addi	s1,sp,8
 50a:	0000                	unimp
 50c:	04f8                	addi	a4,sp,588
 50e:	0000                	unimp
 510:	4f30                	lw	a2,88(a4)
 512:	9000                	0x9000
 514:	0114                	addi	a3,sp,128
 516:	0000                	unimp
 518:	0e44                	addi	s1,sp,788
 51a:	4c10                	lw	a2,24(s0)
 51c:	0181                	addi	gp,gp,0
 51e:	0288                	addi	a0,sp,320
 520:	0389                	addi	t2,t2,2
 522:	6802                	flw	fa6,0(sp)
 524:	c10a                	sw	sp,128(sp)
 526:	c844                	sw	s1,20(s0)
 528:	c954                	sw	a3,20(a0)
 52a:	0e44                	addi	s1,sp,788
 52c:	4400                	lw	s0,8(s0)
 52e:	000c000b          	0xc000b
 532:	0000                	unimp
 534:	ffff                	0xffff
 536:	ffff                	0xffff
 538:	0001                	nop
 53a:	7c01                	lui	s8,0xfffe0
 53c:	0d01                	addi	s10,s10,0
 53e:	0002                	c.slli64	zero
 540:	000c                	0xc
 542:	0000                	unimp
 544:	0530                	addi	a2,sp,648
 546:	0000                	unimp
 548:	5044                	lw	s1,36(s0)
 54a:	9000                	0x9000
 54c:	01f4                	addi	a3,sp,204
 54e:	0000                	unimp
 550:	000c                	0xc
 552:	0000                	unimp
 554:	ffff                	0xffff
 556:	ffff                	0xffff
 558:	0001                	nop
 55a:	7c01                	lui	s8,0xfffe0
 55c:	0d01                	addi	s10,s10,0
 55e:	0002                	c.slli64	zero
 560:	000c                	0xc
 562:	0000                	unimp
 564:	0550                	addi	a2,sp,644
 566:	0000                	unimp
 568:	5238                	lw	a4,96(a2)
 56a:	9000                	0x9000
 56c:	0094                	addi	a3,sp,64
 56e:	0000                	unimp
 570:	000c                	0xc
 572:	0000                	unimp
 574:	ffff                	0xffff
 576:	ffff                	0xffff
 578:	0001                	nop
 57a:	7c01                	lui	s8,0xfffe0
 57c:	0d01                	addi	s10,s10,0
 57e:	0002                	c.slli64	zero
 580:	000c                	0xc
 582:	0000                	unimp
 584:	0570                	addi	a2,sp,652
 586:	0000                	unimp
 588:	52cc                	lw	a1,36(a3)
 58a:	9000                	0x9000
 58c:	0010                	0x10
 58e:	0000                	unimp
 590:	000c                	0xc
 592:	0000                	unimp
 594:	ffff                	0xffff
 596:	ffff                	0xffff
 598:	0001                	nop
 59a:	7c01                	lui	s8,0xfffe0
 59c:	0d01                	addi	s10,s10,0
 59e:	0002                	c.slli64	zero
 5a0:	000c                	0xc
 5a2:	0000                	unimp
 5a4:	0590                	addi	a2,sp,704
 5a6:	0000                	unimp
 5a8:	52dc                	lw	a5,36(a3)
 5aa:	9000                	0x9000
 5ac:	008c                	addi	a1,sp,64
	...
